                              1 ;--------------------------------------------------------
                              2 ; File Created by SDCC : FreeWare ANSI-C Compiler
                              3 ; Version 2.2.1 Sat Dec 23 22:34:44 2023
                              4 
                              5 ;--------------------------------------------------------
                              6 	.module lcc176280
                              7 	
                              8 ;--------------------------------------------------------
                              9 ; Public variables in this module
                             10 ;--------------------------------------------------------
                             11 	.globl _main
                             12 	.globl _SetupEnemy
                             13 	.globl _SetupPlayer
                             14 	.globl _MoveCharacter
                             15 	.globl _checkCollisions
                             16 	.globl _PerfomantDelay
                             17 	.globl _printf
                             18 	.globl _move_sprite
                             19 	.globl _set_sprite_tile
                             20 	.globl _set_sprite_data
                             21 	.globl _wait_vbl_done
                             22 	.globl _joypad
                             23 	.globl _spriteSize
                             24 	.globl _enemy
                             25 	.globl _player
                             26 	.globl _Entities
                             27 	.globl _main
                             28 	.globl _SetupEnemy
                             29 	.globl _SetupPlayer
                             30 	.globl _MoveCharacter
                             31 	.globl _checkCollisions
                             32 	.globl _PerfomantDelay
                             33 ;--------------------------------------------------------
                             34 ; Externals used
                             35 ;--------------------------------------------------------
                             36 	.globl _IE_REG
                             37 	.globl _SVBK_REG
                             38 	.globl _OCPD_REG
                             39 	.globl _OCPS_REG
                             40 	.globl _BCPD_REG
                             41 	.globl _BCPS_REG
                             42 	.globl _RP_REG
                             43 	.globl _HDMA5_REG
                             44 	.globl _HDMA4_REG
                             45 	.globl _HDMA3_REG
                             46 	.globl _HDMA2_REG
                             47 	.globl _HDMA1_REG
                             48 	.globl _VBK_REG
                             49 	.globl _KEY1_REG
                             50 	.globl _WX_REG
                             51 	.globl _WY_REG
                             52 	.globl _OBP1_REG
                             53 	.globl _OBP0_REG
                             54 	.globl _BGP_REG
                             55 	.globl _DMA_REG
                             56 	.globl _LYC_REG
                             57 	.globl _LY_REG
                             58 	.globl _SCX_REG
                             59 	.globl _SCY_REG
                             60 	.globl _STAT_REG
                             61 	.globl _LCDC_REG
                             62 	.globl _NR52_REG
                             63 	.globl _NR51_REG
                             64 	.globl _NR50_REG
                             65 	.globl _NR44_REG
                             66 	.globl _NR43_REG
                             67 	.globl _NR42_REG
                             68 	.globl _NR41_REG
                             69 	.globl _NR34_REG
                             70 	.globl _NR33_REG
                             71 	.globl _NR32_REG
                             72 	.globl _NR31_REG
                             73 	.globl _NR30_REG
                             74 	.globl _NR24_REG
                             75 	.globl _NR23_REG
                             76 	.globl _NR22_REG
                             77 	.globl _NR21_REG
                             78 	.globl _NR14_REG
                             79 	.globl _NR13_REG
                             80 	.globl _NR12_REG
                             81 	.globl _NR11_REG
                             82 	.globl _NR10_REG
                             83 	.globl _IF_REG
                             84 	.globl _TAC_REG
                             85 	.globl _TMA_REG
                             86 	.globl _TIMA_REG
                             87 	.globl _DIV_REG
                             88 	.globl _SC_REG
                             89 	.globl _SB_REG
                             90 	.globl _P1_REG
                             91 	.globl _font_ibm_fixed
                             92 	.globl _font_min
                             93 	.globl _font_ibm
                             94 	.globl _font_italic
                             95 	.globl _font_spect
                             96 	.globl __io_out
                             97 	.globl __io_in
                             98 	.globl __io_status
                             99 	.globl _sys_time
                            100 	.globl __cpu
                            101 ;--------------------------------------------------------
                            102 ; special function registers
                            103 ;--------------------------------------------------------
                            104 ;--------------------------------------------------------
                            105 ; special function bits 
                            106 ;--------------------------------------------------------
                            107 ;--------------------------------------------------------
                            108 ; internal ram data
                            109 ;--------------------------------------------------------
                            110 	.area _DATA
   0000                     111 _Entities::
   0000                     112 	.ds 176
   00B0                     113 _player::
   00B0                     114 	.ds 8
   00B8                     115 _enemy::
   00B8                     116 	.ds 8
   00C0                     117 _spriteSize::
   00C0                     118 	.ds 1
                            119 ;--------------------------------------------------------
                            120 ; overlayable items in internal ram 
                            121 ;--------------------------------------------------------
                            122 	.area _OVERLAY
                            123 ;--------------------------------------------------------
                            124 ; indirectly addressable internal ram data
                            125 ;--------------------------------------------------------
                            126 	.area _ISEG
                            127 ;--------------------------------------------------------
                            128 ; bit data
                            129 ;--------------------------------------------------------
                            130 	.area _BSEG
                            131 ;--------------------------------------------------------
                            132 ; external ram data
                            133 ;--------------------------------------------------------
                            134 	.area _XSEG
                            135 ;--------------------------------------------------------
                            136 ; global & static initialisations
                            137 ;--------------------------------------------------------
                            138 	.area _GSINIT
                            139 	.area _GSFINAL
                            140 	.area _GSINIT
                            141 ;	main.c 104
                            142 ; genAssign (pointer)
   0000 11 00 00            143 	ld	de,#_Entities + 0
   0003 3E E0               144 	ld	a,#0xE0
   0005 12                  145 	ld	(de),a
                            146 ; genPlus
                            147 ; genPlusIncr
   0006 11 01 00            148 	ld	de,#_Entities + 0 + 1
                            149 ; genAssign (pointer)
   0009 3E E0               150 	ld	a,#0xE0
   000B 12                  151 	ld	(de),a
                            152 ; genPlus
                            153 ; genPlusIncr
   000C 11 02 00            154 	ld	de,#_Entities + 0 + 2
                            155 ; genAssign (pointer)
   000F 3E F0               156 	ld	a,#0xF0
   0011 12                  157 	ld	(de),a
                            158 ; genPlus
                            159 ; genPlusIncr
   0012 11 03 00            160 	ld	de,#_Entities + 0 + 3
                            161 ; genAssign (pointer)
   0015 3E F0               162 	ld	a,#0xF0
   0017 12                  163 	ld	(de),a
                            164 ; genPlus
                            165 ; genPlusIncr
   0018 11 04 00            166 	ld	de,#_Entities + 0 + 4
                            167 ; genAssign (pointer)
   001B 3E F8               168 	ld	a,#0xF8
   001D 12                  169 	ld	(de),a
                            170 ; genPlus
                            171 ; genPlusIncr
   001E 11 05 00            172 	ld	de,#_Entities + 0 + 5
                            173 ; genAssign (pointer)
   0021 3E F8               174 	ld	a,#0xF8
   0023 12                  175 	ld	(de),a
                            176 ; genPlus
                            177 ; genPlusIncr
   0024 11 06 00            178 	ld	de,#_Entities + 0 + 6
                            179 ; genAssign (pointer)
   0027 3E FC               180 	ld	a,#0xFC
   0029 12                  181 	ld	(de),a
                            182 ; genPlus
                            183 ; genPlusIncr
   002A 11 07 00            184 	ld	de,#_Entities + 0 + 7
                            185 ; genAssign (pointer)
   002D 3E FC               186 	ld	a,#0xFC
   002F 12                  187 	ld	(de),a
                            188 ; genPlus
                            189 ; genPlusIncr
   0030 11 08 00            190 	ld	de,#_Entities + 0 + 8
                            191 ; genAssign (pointer)
   0033 3E FE               192 	ld	a,#0xFE
   0035 12                  193 	ld	(de),a
                            194 ; genPlus
                            195 ; genPlusIncr
   0036 11 09 00            196 	ld	de,#_Entities + 0 + 9
                            197 ; genAssign (pointer)
   0039 3E FE               198 	ld	a,#0xFE
   003B 12                  199 	ld	(de),a
                            200 ; genPlus
                            201 ; genPlusIncr
   003C 11 0A 00            202 	ld	de,#_Entities + 0 + 10
                            203 ; genAssign (pointer)
   003F 3E FF               204 	ld	a,#0xFF
   0041 12                  205 	ld	(de),a
                            206 ; genPlus
                            207 ; genPlusIncr
   0042 11 0B 00            208 	ld	de,#_Entities + 0 + 11
                            209 ; genAssign (pointer)
   0045 3E FF               210 	ld	a,#0xFF
   0047 12                  211 	ld	(de),a
                            212 ; genPlus
                            213 ; genPlusIncr
   0048 11 0C 00            214 	ld	de,#_Entities + 0 + 12
                            215 ; genAssign (pointer)
   004B 3E FF               216 	ld	a,#0xFF
   004D 12                  217 	ld	(de),a
                            218 ; genPlus
                            219 ; genPlusIncr
   004E 11 0D 00            220 	ld	de,#_Entities + 0 + 13
                            221 ; genAssign (pointer)
   0051 3E FF               222 	ld	a,#0xFF
   0053 12                  223 	ld	(de),a
                            224 ; genPlus
                            225 ; genPlusIncr
   0054 11 0E 00            226 	ld	de,#_Entities + 0 + 14
                            227 ; genAssign (pointer)
   0057 3E FF               228 	ld	a,#0xFF
   0059 12                  229 	ld	(de),a
                            230 ; genPlus
                            231 ; genPlusIncr
   005A 11 0F 00            232 	ld	de,#_Entities + 0 + 15
                            233 ; genAssign (pointer)
   005D 3E FF               234 	ld	a,#0xFF
   005F 12                  235 	ld	(de),a
                            236 ; genPlus
                            237 ; genPlusIncr
   0060 11 10 00            238 	ld	de,#_Entities + 0 + 16
                            239 ; genAssign (pointer)
   0063 3E 00               240 	ld	a,#0x00
   0065 12                  241 	ld	(de),a
                            242 ; genPlus
                            243 ; genPlusIncr
   0066 11 11 00            244 	ld	de,#_Entities + 0 + 17
                            245 ; genAssign (pointer)
   0069 3E 00               246 	ld	a,#0x00
   006B 12                  247 	ld	(de),a
                            248 ; genPlus
                            249 ; genPlusIncr
   006C 11 12 00            250 	ld	de,#_Entities + 0 + 18
                            251 ; genAssign (pointer)
   006F 3E 00               252 	ld	a,#0x00
   0071 12                  253 	ld	(de),a
                            254 ; genPlus
                            255 ; genPlusIncr
   0072 11 13 00            256 	ld	de,#_Entities + 0 + 19
                            257 ; genAssign (pointer)
   0075 3E 00               258 	ld	a,#0x00
   0077 12                  259 	ld	(de),a
                            260 ; genPlus
                            261 ; genPlusIncr
   0078 11 14 00            262 	ld	de,#_Entities + 0 + 20
                            263 ; genAssign (pointer)
   007B 3E 00               264 	ld	a,#0x00
   007D 12                  265 	ld	(de),a
                            266 ; genPlus
                            267 ; genPlusIncr
   007E 11 15 00            268 	ld	de,#_Entities + 0 + 21
                            269 ; genAssign (pointer)
   0081 3E 00               270 	ld	a,#0x00
   0083 12                  271 	ld	(de),a
                            272 ; genPlus
                            273 ; genPlusIncr
   0084 11 16 00            274 	ld	de,#_Entities + 0 + 22
                            275 ; genAssign (pointer)
   0087 3E 00               276 	ld	a,#0x00
   0089 12                  277 	ld	(de),a
                            278 ; genPlus
                            279 ; genPlusIncr
   008A 11 17 00            280 	ld	de,#_Entities + 0 + 23
                            281 ; genAssign (pointer)
   008D 3E 00               282 	ld	a,#0x00
   008F 12                  283 	ld	(de),a
                            284 ; genPlus
                            285 ; genPlusIncr
   0090 11 18 00            286 	ld	de,#_Entities + 0 + 24
                            287 ; genAssign (pointer)
   0093 3E 18               288 	ld	a,#0x18
   0095 12                  289 	ld	(de),a
                            290 ; genPlus
                            291 ; genPlusIncr
   0096 11 19 00            292 	ld	de,#_Entities + 0 + 25
                            293 ; genAssign (pointer)
   0099 3E 18               294 	ld	a,#0x18
   009B 12                  295 	ld	(de),a
                            296 ; genPlus
                            297 ; genPlusIncr
   009C 11 1A 00            298 	ld	de,#_Entities + 0 + 26
                            299 ; genAssign (pointer)
   009F 3E 3C               300 	ld	a,#0x3C
   00A1 12                  301 	ld	(de),a
                            302 ; genPlus
                            303 ; genPlusIncr
   00A2 11 1B 00            304 	ld	de,#_Entities + 0 + 27
                            305 ; genAssign (pointer)
   00A5 3E 3C               306 	ld	a,#0x3C
   00A7 12                  307 	ld	(de),a
                            308 ; genPlus
                            309 ; genPlusIncr
   00A8 11 1C 00            310 	ld	de,#_Entities + 0 + 28
                            311 ; genAssign (pointer)
   00AB 3E FE               312 	ld	a,#0xFE
   00AD 12                  313 	ld	(de),a
                            314 ; genPlus
                            315 ; genPlusIncr
   00AE 11 1D 00            316 	ld	de,#_Entities + 0 + 29
                            317 ; genAssign (pointer)
   00B1 3E FE               318 	ld	a,#0xFE
   00B3 12                  319 	ld	(de),a
                            320 ; genPlus
                            321 ; genPlusIncr
   00B4 11 1E 00            322 	ld	de,#_Entities + 0 + 30
                            323 ; genAssign (pointer)
   00B7 3E FF               324 	ld	a,#0xFF
   00B9 12                  325 	ld	(de),a
                            326 ; genPlus
                            327 ; genPlusIncr
   00BA 11 1F 00            328 	ld	de,#_Entities + 0 + 31
                            329 ; genAssign (pointer)
   00BD 3E FF               330 	ld	a,#0xFF
   00BF 12                  331 	ld	(de),a
                            332 ; genPlus
                            333 ; genPlusIncr
   00C0 11 20 00            334 	ld	de,#_Entities + 0 + 32
                            335 ; genAssign (pointer)
   00C3 3E FF               336 	ld	a,#0xFF
   00C5 12                  337 	ld	(de),a
                            338 ; genPlus
                            339 ; genPlusIncr
   00C6 11 21 00            340 	ld	de,#_Entities + 0 + 33
                            341 ; genAssign (pointer)
   00C9 3E FF               342 	ld	a,#0xFF
   00CB 12                  343 	ld	(de),a
                            344 ; genPlus
                            345 ; genPlusIncr
   00CC 11 22 00            346 	ld	de,#_Entities + 0 + 34
                            347 ; genAssign (pointer)
   00CF 3E FF               348 	ld	a,#0xFF
   00D1 12                  349 	ld	(de),a
                            350 ; genPlus
                            351 ; genPlusIncr
   00D2 11 23 00            352 	ld	de,#_Entities + 0 + 35
                            353 ; genAssign (pointer)
   00D5 3E FF               354 	ld	a,#0xFF
   00D7 12                  355 	ld	(de),a
                            356 ; genPlus
                            357 ; genPlusIncr
   00D8 11 24 00            358 	ld	de,#_Entities + 0 + 36
                            359 ; genAssign (pointer)
   00DB 3E FF               360 	ld	a,#0xFF
   00DD 12                  361 	ld	(de),a
                            362 ; genPlus
                            363 ; genPlusIncr
   00DE 11 25 00            364 	ld	de,#_Entities + 0 + 37
                            365 ; genAssign (pointer)
   00E1 3E FF               366 	ld	a,#0xFF
   00E3 12                  367 	ld	(de),a
                            368 ; genPlus
                            369 ; genPlusIncr
   00E4 11 26 00            370 	ld	de,#_Entities + 0 + 38
                            371 ; genAssign (pointer)
   00E7 3E FE               372 	ld	a,#0xFE
   00E9 12                  373 	ld	(de),a
                            374 ; genPlus
                            375 ; genPlusIncr
   00EA 11 27 00            376 	ld	de,#_Entities + 0 + 39
                            377 ; genAssign (pointer)
   00ED 3E FE               378 	ld	a,#0xFE
   00EF 12                  379 	ld	(de),a
                            380 ; genPlus
                            381 ; genPlusIncr
   00F0 11 28 00            382 	ld	de,#_Entities + 0 + 40
                            383 ; genAssign (pointer)
   00F3 3E FC               384 	ld	a,#0xFC
   00F5 12                  385 	ld	(de),a
                            386 ; genPlus
                            387 ; genPlusIncr
   00F6 11 29 00            388 	ld	de,#_Entities + 0 + 41
                            389 ; genAssign (pointer)
   00F9 3E FC               390 	ld	a,#0xFC
   00FB 12                  391 	ld	(de),a
                            392 ; genPlus
                            393 ; genPlusIncr
   00FC 11 2A 00            394 	ld	de,#_Entities + 0 + 42
                            395 ; genAssign (pointer)
   00FF 3E F8               396 	ld	a,#0xF8
   0101 12                  397 	ld	(de),a
                            398 ; genPlus
                            399 ; genPlusIncr
   0102 11 2B 00            400 	ld	de,#_Entities + 0 + 43
                            401 ; genAssign (pointer)
   0105 3E F8               402 	ld	a,#0xF8
   0107 12                  403 	ld	(de),a
                            404 ; genPlus
                            405 ; genPlusIncr
   0108 11 2C 00            406 	ld	de,#_Entities + 0 + 44
                            407 ; genAssign (pointer)
   010B 3E F0               408 	ld	a,#0xF0
   010D 12                  409 	ld	(de),a
                            410 ; genPlus
                            411 ; genPlusIncr
   010E 11 2D 00            412 	ld	de,#_Entities + 0 + 45
                            413 ; genAssign (pointer)
   0111 3E F0               414 	ld	a,#0xF0
   0113 12                  415 	ld	(de),a
                            416 ; genPlus
                            417 ; genPlusIncr
   0114 11 2E 00            418 	ld	de,#_Entities + 0 + 46
                            419 ; genAssign (pointer)
   0117 3E E0               420 	ld	a,#0xE0
   0119 12                  421 	ld	(de),a
                            422 ; genPlus
                            423 ; genPlusIncr
   011A 11 2F 00            424 	ld	de,#_Entities + 0 + 47
                            425 ; genAssign (pointer)
   011D 3E E0               426 	ld	a,#0xE0
   011F 12                  427 	ld	(de),a
                            428 ; genPlus
                            429 ; genPlusIncr
   0120 11 30 00            430 	ld	de,#_Entities + 0 + 48
                            431 ; genAssign (pointer)
   0123 3E FF               432 	ld	a,#0xFF
   0125 12                  433 	ld	(de),a
                            434 ; genPlus
                            435 ; genPlusIncr
   0126 11 31 00            436 	ld	de,#_Entities + 0 + 49
                            437 ; genAssign (pointer)
   0129 3E FF               438 	ld	a,#0xFF
   012B 12                  439 	ld	(de),a
                            440 ; genPlus
                            441 ; genPlusIncr
   012C 11 32 00            442 	ld	de,#_Entities + 0 + 50
                            443 ; genAssign (pointer)
   012F 3E FE               444 	ld	a,#0xFE
   0131 12                  445 	ld	(de),a
                            446 ; genPlus
                            447 ; genPlusIncr
   0132 11 33 00            448 	ld	de,#_Entities + 0 + 51
                            449 ; genAssign (pointer)
   0135 3E FE               450 	ld	a,#0xFE
   0137 12                  451 	ld	(de),a
                            452 ; genPlus
                            453 ; genPlusIncr
   0138 11 34 00            454 	ld	de,#_Entities + 0 + 52
                            455 ; genAssign (pointer)
   013B 3E 3C               456 	ld	a,#0x3C
   013D 12                  457 	ld	(de),a
                            458 ; genPlus
                            459 ; genPlusIncr
   013E 11 35 00            460 	ld	de,#_Entities + 0 + 53
                            461 ; genAssign (pointer)
   0141 3E 3C               462 	ld	a,#0x3C
   0143 12                  463 	ld	(de),a
                            464 ; genPlus
                            465 ; genPlusIncr
   0144 11 36 00            466 	ld	de,#_Entities + 0 + 54
                            467 ; genAssign (pointer)
   0147 3E 18               468 	ld	a,#0x18
   0149 12                  469 	ld	(de),a
                            470 ; genPlus
                            471 ; genPlusIncr
   014A 11 37 00            472 	ld	de,#_Entities + 0 + 55
                            473 ; genAssign (pointer)
   014D 3E 18               474 	ld	a,#0x18
   014F 12                  475 	ld	(de),a
                            476 ; genPlus
                            477 ; genPlusIncr
   0150 11 38 00            478 	ld	de,#_Entities + 0 + 56
                            479 ; genAssign (pointer)
   0153 3E 00               480 	ld	a,#0x00
   0155 12                  481 	ld	(de),a
                            482 ; genPlus
                            483 ; genPlusIncr
   0156 11 39 00            484 	ld	de,#_Entities + 0 + 57
                            485 ; genAssign (pointer)
   0159 3E 00               486 	ld	a,#0x00
   015B 12                  487 	ld	(de),a
                            488 ; genPlus
                            489 ; genPlusIncr
   015C 11 3A 00            490 	ld	de,#_Entities + 0 + 58
                            491 ; genAssign (pointer)
   015F 3E 00               492 	ld	a,#0x00
   0161 12                  493 	ld	(de),a
                            494 ; genPlus
                            495 ; genPlusIncr
   0162 11 3B 00            496 	ld	de,#_Entities + 0 + 59
                            497 ; genAssign (pointer)
   0165 3E 00               498 	ld	a,#0x00
   0167 12                  499 	ld	(de),a
                            500 ; genPlus
                            501 ; genPlusIncr
   0168 11 3C 00            502 	ld	de,#_Entities + 0 + 60
                            503 ; genAssign (pointer)
   016B 3E 00               504 	ld	a,#0x00
   016D 12                  505 	ld	(de),a
                            506 ; genPlus
                            507 ; genPlusIncr
   016E 11 3D 00            508 	ld	de,#_Entities + 0 + 61
                            509 ; genAssign (pointer)
   0171 3E 00               510 	ld	a,#0x00
   0173 12                  511 	ld	(de),a
                            512 ; genPlus
                            513 ; genPlusIncr
   0174 11 3E 00            514 	ld	de,#_Entities + 0 + 62
                            515 ; genAssign (pointer)
   0177 3E 00               516 	ld	a,#0x00
   0179 12                  517 	ld	(de),a
                            518 ; genPlus
                            519 ; genPlusIncr
   017A 11 3F 00            520 	ld	de,#_Entities + 0 + 63
                            521 ; genAssign (pointer)
   017D 3E 00               522 	ld	a,#0x00
   017F 12                  523 	ld	(de),a
                            524 ; genPlus
                            525 ; genPlusIncr
   0180 11 40 00            526 	ld	de,#_Entities + 0 + 64
                            527 ; genAssign (pointer)
   0183 3E 00               528 	ld	a,#0x00
   0185 12                  529 	ld	(de),a
                            530 ; genPlus
                            531 ; genPlusIncr
   0186 11 41 00            532 	ld	de,#_Entities + 0 + 65
                            533 ; genAssign (pointer)
   0189 3E 00               534 	ld	a,#0x00
   018B 12                  535 	ld	(de),a
                            536 ; genPlus
                            537 ; genPlusIncr
   018C 11 42 00            538 	ld	de,#_Entities + 0 + 66
                            539 ; genAssign (pointer)
   018F 3E 00               540 	ld	a,#0x00
   0191 12                  541 	ld	(de),a
                            542 ; genPlus
                            543 ; genPlusIncr
   0192 11 43 00            544 	ld	de,#_Entities + 0 + 67
                            545 ; genAssign (pointer)
   0195 3E 00               546 	ld	a,#0x00
   0197 12                  547 	ld	(de),a
                            548 ; genPlus
                            549 ; genPlusIncr
   0198 11 44 00            550 	ld	de,#_Entities + 0 + 68
                            551 ; genAssign (pointer)
   019B 3E 00               552 	ld	a,#0x00
   019D 12                  553 	ld	(de),a
                            554 ; genPlus
                            555 ; genPlusIncr
   019E 11 45 00            556 	ld	de,#_Entities + 0 + 69
                            557 ; genAssign (pointer)
   01A1 3E 00               558 	ld	a,#0x00
   01A3 12                  559 	ld	(de),a
                            560 ; genPlus
                            561 ; genPlusIncr
   01A4 11 46 00            562 	ld	de,#_Entities + 0 + 70
                            563 ; genAssign (pointer)
   01A7 3E 00               564 	ld	a,#0x00
   01A9 12                  565 	ld	(de),a
                            566 ; genPlus
                            567 ; genPlusIncr
   01AA 11 47 00            568 	ld	de,#_Entities + 0 + 71
                            569 ; genAssign (pointer)
   01AD 3E 00               570 	ld	a,#0x00
   01AF 12                  571 	ld	(de),a
                            572 ; genPlus
                            573 ; genPlusIncr
   01B0 11 48 00            574 	ld	de,#_Entities + 0 + 72
                            575 ; genAssign (pointer)
   01B3 3E 00               576 	ld	a,#0x00
   01B5 12                  577 	ld	(de),a
                            578 ; genPlus
                            579 ; genPlusIncr
   01B6 11 49 00            580 	ld	de,#_Entities + 0 + 73
                            581 ; genAssign (pointer)
   01B9 3E 00               582 	ld	a,#0x00
   01BB 12                  583 	ld	(de),a
                            584 ; genPlus
                            585 ; genPlusIncr
   01BC 11 4A 00            586 	ld	de,#_Entities + 0 + 74
                            587 ; genAssign (pointer)
   01BF 3E 00               588 	ld	a,#0x00
   01C1 12                  589 	ld	(de),a
                            590 ; genPlus
                            591 ; genPlusIncr
   01C2 11 4B 00            592 	ld	de,#_Entities + 0 + 75
                            593 ; genAssign (pointer)
   01C5 3E 00               594 	ld	a,#0x00
   01C7 12                  595 	ld	(de),a
                            596 ; genPlus
                            597 ; genPlusIncr
   01C8 11 4C 00            598 	ld	de,#_Entities + 0 + 76
                            599 ; genAssign (pointer)
   01CB 3E 00               600 	ld	a,#0x00
   01CD 12                  601 	ld	(de),a
                            602 ; genPlus
                            603 ; genPlusIncr
   01CE 11 4D 00            604 	ld	de,#_Entities + 0 + 77
                            605 ; genAssign (pointer)
   01D1 3E 00               606 	ld	a,#0x00
   01D3 12                  607 	ld	(de),a
                            608 ; genPlus
                            609 ; genPlusIncr
   01D4 11 4E 00            610 	ld	de,#_Entities + 0 + 78
                            611 ; genAssign (pointer)
   01D7 3E 00               612 	ld	a,#0x00
   01D9 12                  613 	ld	(de),a
                            614 ; genPlus
                            615 ; genPlusIncr
   01DA 11 4F 00            616 	ld	de,#_Entities + 0 + 79
                            617 ; genAssign (pointer)
   01DD 3E 00               618 	ld	a,#0x00
   01DF 12                  619 	ld	(de),a
                            620 ; genPlus
                            621 ; genPlusIncr
   01E0 11 50 00            622 	ld	de,#_Entities + 0 + 80
                            623 ; genAssign (pointer)
   01E3 3E 00               624 	ld	a,#0x00
   01E5 12                  625 	ld	(de),a
                            626 ; genPlus
                            627 ; genPlusIncr
   01E6 11 51 00            628 	ld	de,#_Entities + 0 + 81
                            629 ; genAssign (pointer)
   01E9 3E 00               630 	ld	a,#0x00
   01EB 12                  631 	ld	(de),a
                            632 ; genPlus
                            633 ; genPlusIncr
   01EC 11 52 00            634 	ld	de,#_Entities + 0 + 82
                            635 ; genAssign (pointer)
   01EF 3E 3E               636 	ld	a,#0x3E
   01F1 12                  637 	ld	(de),a
                            638 ; genPlus
                            639 ; genPlusIncr
   01F2 11 53 00            640 	ld	de,#_Entities + 0 + 83
                            641 ; genAssign (pointer)
   01F5 3E 3E               642 	ld	a,#0x3E
   01F7 12                  643 	ld	(de),a
                            644 ; genPlus
                            645 ; genPlusIncr
   01F8 11 54 00            646 	ld	de,#_Entities + 0 + 84
                            647 ; genAssign (pointer)
   01FB 3E FF               648 	ld	a,#0xFF
   01FD 12                  649 	ld	(de),a
                            650 ; genPlus
                            651 ; genPlusIncr
   01FE 11 55 00            652 	ld	de,#_Entities + 0 + 85
                            653 ; genAssign (pointer)
   0201 3E FF               654 	ld	a,#0xFF
   0203 12                  655 	ld	(de),a
                            656 ; genPlus
                            657 ; genPlusIncr
   0204 11 56 00            658 	ld	de,#_Entities + 0 + 86
                            659 ; genAssign (pointer)
   0207 3E FF               660 	ld	a,#0xFF
   0209 12                  661 	ld	(de),a
                            662 ; genPlus
                            663 ; genPlusIncr
   020A 11 57 00            664 	ld	de,#_Entities + 0 + 87
                            665 ; genAssign (pointer)
   020D 3E 7F               666 	ld	a,#0x7F
   020F 12                  667 	ld	(de),a
                            668 ; genPlus
                            669 ; genPlusIncr
   0210 11 58 00            670 	ld	de,#_Entities + 0 + 88
                            671 ; genAssign (pointer)
   0213 3E FF               672 	ld	a,#0xFF
   0215 12                  673 	ld	(de),a
                            674 ; genPlus
                            675 ; genPlusIncr
   0216 11 59 00            676 	ld	de,#_Entities + 0 + 89
                            677 ; genAssign (pointer)
   0219 3E FB               678 	ld	a,#0xFB
   021B 12                  679 	ld	(de),a
                            680 ; genPlus
                            681 ; genPlusIncr
   021C 11 5A 00            682 	ld	de,#_Entities + 0 + 90
                            683 ; genAssign (pointer)
   021F 3E FF               684 	ld	a,#0xFF
   0221 12                  685 	ld	(de),a
                            686 ; genPlus
                            687 ; genPlusIncr
   0222 11 5B 00            688 	ld	de,#_Entities + 0 + 91
                            689 ; genAssign (pointer)
   0225 3E F7               690 	ld	a,#0xF7
   0227 12                  691 	ld	(de),a
                            692 ; genPlus
                            693 ; genPlusIncr
   0228 11 5C 00            694 	ld	de,#_Entities + 0 + 92
                            695 ; genAssign (pointer)
   022B 3E FF               696 	ld	a,#0xFF
   022D 12                  697 	ld	(de),a
                            698 ; genPlus
                            699 ; genPlusIncr
   022E 11 5D 00            700 	ld	de,#_Entities + 0 + 93
                            701 ; genAssign (pointer)
   0231 3E FD               702 	ld	a,#0xFD
   0233 12                  703 	ld	(de),a
                            704 ; genPlus
                            705 ; genPlusIncr
   0234 11 5E 00            706 	ld	de,#_Entities + 0 + 94
                            707 ; genAssign (pointer)
   0237 3E 7F               708 	ld	a,#0x7F
   0239 12                  709 	ld	(de),a
                            710 ; genPlus
                            711 ; genPlusIncr
   023A 11 5F 00            712 	ld	de,#_Entities + 0 + 95
                            713 ; genAssign (pointer)
   023D 3E 7F               714 	ld	a,#0x7F
   023F 12                  715 	ld	(de),a
                            716 ; genPlus
                            717 ; genPlusIncr
   0240 11 60 00            718 	ld	de,#_Entities + 0 + 96
                            719 ; genAssign (pointer)
   0243 3E 00               720 	ld	a,#0x00
   0245 12                  721 	ld	(de),a
                            722 ; genPlus
                            723 ; genPlusIncr
   0246 11 61 00            724 	ld	de,#_Entities + 0 + 97
                            725 ; genAssign (pointer)
   0249 3E 00               726 	ld	a,#0x00
   024B 12                  727 	ld	(de),a
                            728 ; genPlus
                            729 ; genPlusIncr
   024C 11 62 00            730 	ld	de,#_Entities + 0 + 98
                            731 ; genAssign (pointer)
   024F 3E 7C               732 	ld	a,#0x7C
   0251 12                  733 	ld	(de),a
                            734 ; genPlus
                            735 ; genPlusIncr
   0252 11 63 00            736 	ld	de,#_Entities + 0 + 99
                            737 ; genAssign (pointer)
   0255 3E 7C               738 	ld	a,#0x7C
   0257 12                  739 	ld	(de),a
                            740 ; genPlus
                            741 ; genPlusIncr
   0258 11 64 00            742 	ld	de,#_Entities + 0 + 100
                            743 ; genAssign (pointer)
   025B 3E FE               744 	ld	a,#0xFE
   025D 12                  745 	ld	(de),a
                            746 ; genPlus
                            747 ; genPlusIncr
   025E 11 65 00            748 	ld	de,#_Entities + 0 + 101
                            749 ; genAssign (pointer)
   0261 3E FE               750 	ld	a,#0xFE
   0263 12                  751 	ld	(de),a
                            752 ; genPlus
                            753 ; genPlusIncr
   0264 11 66 00            754 	ld	de,#_Entities + 0 + 102
                            755 ; genAssign (pointer)
   0267 3E FF               756 	ld	a,#0xFF
   0269 12                  757 	ld	(de),a
                            758 ; genPlus
                            759 ; genPlusIncr
   026A 11 67 00            760 	ld	de,#_Entities + 0 + 103
                            761 ; genAssign (pointer)
   026D 3E FF               762 	ld	a,#0xFF
   026F 12                  763 	ld	(de),a
                            764 ; genPlus
                            765 ; genPlusIncr
   0270 11 68 00            766 	ld	de,#_Entities + 0 + 104
                            767 ; genAssign (pointer)
   0273 3E FF               768 	ld	a,#0xFF
   0275 12                  769 	ld	(de),a
                            770 ; genPlus
                            771 ; genPlusIncr
   0276 11 69 00            772 	ld	de,#_Entities + 0 + 105
                            773 ; genAssign (pointer)
   0279 3E F7               774 	ld	a,#0xF7
   027B 12                  775 	ld	(de),a
                            776 ; genPlus
                            777 ; genPlusIncr
   027C 11 6A 00            778 	ld	de,#_Entities + 0 + 106
                            779 ; genAssign (pointer)
   027F 3E FE               780 	ld	a,#0xFE
   0281 12                  781 	ld	(de),a
                            782 ; genPlus
                            783 ; genPlusIncr
   0282 11 6B 00            784 	ld	de,#_Entities + 0 + 107
                            785 ; genAssign (pointer)
   0285 3E FE               786 	ld	a,#0xFE
   0287 12                  787 	ld	(de),a
                            788 ; genPlus
                            789 ; genPlusIncr
   0288 11 6C 00            790 	ld	de,#_Entities + 0 + 108
                            791 ; genAssign (pointer)
   028B 3E FE               792 	ld	a,#0xFE
   028D 12                  793 	ld	(de),a
                            794 ; genPlus
                            795 ; genPlusIncr
   028E 11 6D 00            796 	ld	de,#_Entities + 0 + 109
                            797 ; genAssign (pointer)
   0291 3E DE               798 	ld	a,#0xDE
   0293 12                  799 	ld	(de),a
                            800 ; genPlus
                            801 ; genPlusIncr
   0294 11 6E 00            802 	ld	de,#_Entities + 0 + 110
                            803 ; genAssign (pointer)
   0297 3E FF               804 	ld	a,#0xFF
   0299 12                  805 	ld	(de),a
                            806 ; genPlus
                            807 ; genPlusIncr
   029A 11 6F 00            808 	ld	de,#_Entities + 0 + 111
                            809 ; genAssign (pointer)
   029D 3E FF               810 	ld	a,#0xFF
   029F 12                  811 	ld	(de),a
                            812 ; genPlus
                            813 ; genPlusIncr
   02A0 11 70 00            814 	ld	de,#_Entities + 0 + 112
                            815 ; genAssign (pointer)
   02A3 3E FE               816 	ld	a,#0xFE
   02A5 12                  817 	ld	(de),a
                            818 ; genPlus
                            819 ; genPlusIncr
   02A6 11 71 00            820 	ld	de,#_Entities + 0 + 113
                            821 ; genAssign (pointer)
   02A9 3E EE               822 	ld	a,#0xEE
   02AB 12                  823 	ld	(de),a
                            824 ; genPlus
                            825 ; genPlusIncr
   02AC 11 72 00            826 	ld	de,#_Entities + 0 + 114
                            827 ; genAssign (pointer)
   02AF 3E FF               828 	ld	a,#0xFF
   02B1 12                  829 	ld	(de),a
                            830 ; genPlus
                            831 ; genPlusIncr
   02B2 11 73 00            832 	ld	de,#_Entities + 0 + 115
                            833 ; genAssign (pointer)
   02B5 3E FF               834 	ld	a,#0xFF
   02B7 12                  835 	ld	(de),a
                            836 ; genPlus
                            837 ; genPlusIncr
   02B8 11 74 00            838 	ld	de,#_Entities + 0 + 116
                            839 ; genAssign (pointer)
   02BB 3E FF               840 	ld	a,#0xFF
   02BD 12                  841 	ld	(de),a
                            842 ; genPlus
                            843 ; genPlusIncr
   02BE 11 75 00            844 	ld	de,#_Entities + 0 + 117
                            845 ; genAssign (pointer)
   02C1 3E FF               846 	ld	a,#0xFF
   02C3 12                  847 	ld	(de),a
                            848 ; genPlus
                            849 ; genPlusIncr
   02C4 11 76 00            850 	ld	de,#_Entities + 0 + 118
                            851 ; genAssign (pointer)
   02C7 3E FF               852 	ld	a,#0xFF
   02C9 12                  853 	ld	(de),a
                            854 ; genPlus
                            855 ; genPlusIncr
   02CA 11 77 00            856 	ld	de,#_Entities + 0 + 119
                            857 ; genAssign (pointer)
   02CD 3E EF               858 	ld	a,#0xEF
   02CF 12                  859 	ld	(de),a
                            860 ; genPlus
                            861 ; genPlusIncr
   02D0 11 78 00            862 	ld	de,#_Entities + 0 + 120
                            863 ; genAssign (pointer)
   02D3 3E FE               864 	ld	a,#0xFE
   02D5 12                  865 	ld	(de),a
                            866 ; genPlus
                            867 ; genPlusIncr
   02D6 11 79 00            868 	ld	de,#_Entities + 0 + 121
                            869 ; genAssign (pointer)
   02D9 3E FE               870 	ld	a,#0xFE
   02DB 12                  871 	ld	(de),a
                            872 ; genPlus
                            873 ; genPlusIncr
   02DC 11 7A 00            874 	ld	de,#_Entities + 0 + 122
                            875 ; genAssign (pointer)
   02DF 3E FF               876 	ld	a,#0xFF
   02E1 12                  877 	ld	(de),a
                            878 ; genPlus
                            879 ; genPlusIncr
   02E2 11 7B 00            880 	ld	de,#_Entities + 0 + 123
                            881 ; genAssign (pointer)
   02E5 3E BF               882 	ld	a,#0xBF
   02E7 12                  883 	ld	(de),a
                            884 ; genPlus
                            885 ; genPlusIncr
   02E8 11 7C 00            886 	ld	de,#_Entities + 0 + 124
                            887 ; genAssign (pointer)
   02EB 3E FE               888 	ld	a,#0xFE
   02ED 12                  889 	ld	(de),a
                            890 ; genPlus
                            891 ; genPlusIncr
   02EE 11 7D 00            892 	ld	de,#_Entities + 0 + 125
                            893 ; genAssign (pointer)
   02F1 3E FE               894 	ld	a,#0xFE
   02F3 12                  895 	ld	(de),a
                            896 ; genPlus
                            897 ; genPlusIncr
   02F4 11 7E 00            898 	ld	de,#_Entities + 0 + 126
                            899 ; genAssign (pointer)
   02F7 3E FC               900 	ld	a,#0xFC
   02F9 12                  901 	ld	(de),a
                            902 ; genPlus
                            903 ; genPlusIncr
   02FA 11 7F 00            904 	ld	de,#_Entities + 0 + 127
                            905 ; genAssign (pointer)
   02FD 3E FC               906 	ld	a,#0xFC
   02FF 12                  907 	ld	(de),a
                            908 ; genPlus
                            909 ; genPlusIncr
   0300 11 80 00            910 	ld	de,#_Entities + 0 + 128
                            911 ; genAssign (pointer)
   0303 3E 7F               912 	ld	a,#0x7F
   0305 12                  913 	ld	(de),a
                            914 ; genPlus
                            915 ; genPlusIncr
   0306 11 81 00            916 	ld	de,#_Entities + 0 + 129
                            917 ; genAssign (pointer)
   0309 3E 7F               918 	ld	a,#0x7F
   030B 12                  919 	ld	(de),a
                            920 ; genPlus
                            921 ; genPlusIncr
   030C 11 82 00            922 	ld	de,#_Entities + 0 + 130
                            923 ; genAssign (pointer)
   030F 3E 7F               924 	ld	a,#0x7F
   0311 12                  925 	ld	(de),a
                            926 ; genPlus
                            927 ; genPlusIncr
   0312 11 83 00            928 	ld	de,#_Entities + 0 + 131
                            929 ; genAssign (pointer)
   0315 3E 7F               930 	ld	a,#0x7F
   0317 12                  931 	ld	(de),a
                            932 ; genPlus
                            933 ; genPlusIncr
   0318 11 84 00            934 	ld	de,#_Entities + 0 + 132
                            935 ; genAssign (pointer)
   031B 3E 7F               936 	ld	a,#0x7F
   031D 12                  937 	ld	(de),a
                            938 ; genPlus
                            939 ; genPlusIncr
   031E 11 85 00            940 	ld	de,#_Entities + 0 + 133
                            941 ; genAssign (pointer)
   0321 3E 6B               942 	ld	a,#0x6B
   0323 12                  943 	ld	(de),a
                            944 ; genPlus
                            945 ; genPlusIncr
   0324 11 86 00            946 	ld	de,#_Entities + 0 + 134
                            947 ; genAssign (pointer)
   0327 3E 7F               948 	ld	a,#0x7F
   0329 12                  949 	ld	(de),a
                            950 ; genPlus
                            951 ; genPlusIncr
   032A 11 87 00            952 	ld	de,#_Entities + 0 + 135
                            953 ; genAssign (pointer)
   032D 3E 7F               954 	ld	a,#0x7F
   032F 12                  955 	ld	(de),a
                            956 ; genPlus
                            957 ; genPlusIncr
   0330 11 88 00            958 	ld	de,#_Entities + 0 + 136
                            959 ; genAssign (pointer)
   0333 3E FF               960 	ld	a,#0xFF
   0335 12                  961 	ld	(de),a
                            962 ; genPlus
                            963 ; genPlusIncr
   0336 11 89 00            964 	ld	de,#_Entities + 0 + 137
                            965 ; genAssign (pointer)
   0339 3E FF               966 	ld	a,#0xFF
   033B 12                  967 	ld	(de),a
                            968 ; genPlus
                            969 ; genPlusIncr
   033C 11 8A 00            970 	ld	de,#_Entities + 0 + 138
                            971 ; genAssign (pointer)
   033F 3E FF               972 	ld	a,#0xFF
   0341 12                  973 	ld	(de),a
                            974 ; genPlus
                            975 ; genPlusIncr
   0342 11 8B 00            976 	ld	de,#_Entities + 0 + 139
                            977 ; genAssign (pointer)
   0345 3E DB               978 	ld	a,#0xDB
   0347 12                  979 	ld	(de),a
                            980 ; genPlus
                            981 ; genPlusIncr
   0348 11 8C 00            982 	ld	de,#_Entities + 0 + 140
                            983 ; genAssign (pointer)
   034B 3E 7F               984 	ld	a,#0x7F
   034D 12                  985 	ld	(de),a
                            986 ; genPlus
                            987 ; genPlusIncr
   034E 11 8D 00            988 	ld	de,#_Entities + 0 + 141
                            989 ; genAssign (pointer)
   0351 3E 7F               990 	ld	a,#0x7F
   0353 12                  991 	ld	(de),a
                            992 ; genPlus
                            993 ; genPlusIncr
   0354 11 8E 00            994 	ld	de,#_Entities + 0 + 142
                            995 ; genAssign (pointer)
   0357 3E 3F               996 	ld	a,#0x3F
   0359 12                  997 	ld	(de),a
                            998 ; genPlus
                            999 ; genPlusIncr
   035A 11 8F 00           1000 	ld	de,#_Entities + 0 + 143
                           1001 ; genAssign (pointer)
   035D 3E 3F              1002 	ld	a,#0x3F
   035F 12                 1003 	ld	(de),a
                           1004 ; genPlus
                           1005 ; genPlusIncr
   0360 11 90 00           1006 	ld	de,#_Entities + 0 + 144
                           1007 ; genAssign (pointer)
   0363 3E 00              1008 	ld	a,#0x00
   0365 12                 1009 	ld	(de),a
                           1010 ; genPlus
                           1011 ; genPlusIncr
   0366 11 91 00           1012 	ld	de,#_Entities + 0 + 145
                           1013 ; genAssign (pointer)
   0369 3E 00              1014 	ld	a,#0x00
   036B 12                 1015 	ld	(de),a
                           1016 ; genPlus
                           1017 ; genPlusIncr
   036C 11 92 00           1018 	ld	de,#_Entities + 0 + 146
                           1019 ; genAssign (pointer)
   036F 3E 00              1020 	ld	a,#0x00
   0371 12                 1021 	ld	(de),a
                           1022 ; genPlus
                           1023 ; genPlusIncr
   0372 11 93 00           1024 	ld	de,#_Entities + 0 + 147
                           1025 ; genAssign (pointer)
   0375 3E 00              1026 	ld	a,#0x00
   0377 12                 1027 	ld	(de),a
                           1028 ; genPlus
                           1029 ; genPlusIncr
   0378 11 94 00           1030 	ld	de,#_Entities + 0 + 148
                           1031 ; genAssign (pointer)
   037B 3E 00              1032 	ld	a,#0x00
   037D 12                 1033 	ld	(de),a
                           1034 ; genPlus
                           1035 ; genPlusIncr
   037E 11 95 00           1036 	ld	de,#_Entities + 0 + 149
                           1037 ; genAssign (pointer)
   0381 3E 00              1038 	ld	a,#0x00
   0383 12                 1039 	ld	(de),a
                           1040 ; genPlus
                           1041 ; genPlusIncr
   0384 11 96 00           1042 	ld	de,#_Entities + 0 + 150
                           1043 ; genAssign (pointer)
   0387 3E 00              1044 	ld	a,#0x00
   0389 12                 1045 	ld	(de),a
                           1046 ; genPlus
                           1047 ; genPlusIncr
   038A 11 97 00           1048 	ld	de,#_Entities + 0 + 151
                           1049 ; genAssign (pointer)
   038D 3E 00              1050 	ld	a,#0x00
   038F 12                 1051 	ld	(de),a
                           1052 ; genPlus
                           1053 ; genPlusIncr
   0390 11 98 00           1054 	ld	de,#_Entities + 0 + 152
                           1055 ; genAssign (pointer)
   0393 3E 00              1056 	ld	a,#0x00
   0395 12                 1057 	ld	(de),a
                           1058 ; genPlus
                           1059 ; genPlusIncr
   0396 11 99 00           1060 	ld	de,#_Entities + 0 + 153
                           1061 ; genAssign (pointer)
   0399 3E 00              1062 	ld	a,#0x00
   039B 12                 1063 	ld	(de),a
                           1064 ; genPlus
                           1065 ; genPlusIncr
   039C 11 9A 00           1066 	ld	de,#_Entities + 0 + 154
                           1067 ; genAssign (pointer)
   039F 3E 00              1068 	ld	a,#0x00
   03A1 12                 1069 	ld	(de),a
                           1070 ; genPlus
                           1071 ; genPlusIncr
   03A2 11 9B 00           1072 	ld	de,#_Entities + 0 + 155
                           1073 ; genAssign (pointer)
   03A5 3E 00              1074 	ld	a,#0x00
   03A7 12                 1075 	ld	(de),a
                           1076 ; genPlus
                           1077 ; genPlusIncr
   03A8 11 9C 00           1078 	ld	de,#_Entities + 0 + 156
                           1079 ; genAssign (pointer)
   03AB 3E 00              1080 	ld	a,#0x00
   03AD 12                 1081 	ld	(de),a
                           1082 ; genPlus
                           1083 ; genPlusIncr
   03AE 11 9D 00           1084 	ld	de,#_Entities + 0 + 157
                           1085 ; genAssign (pointer)
   03B1 3E 00              1086 	ld	a,#0x00
   03B3 12                 1087 	ld	(de),a
                           1088 ; genPlus
                           1089 ; genPlusIncr
   03B4 11 9E 00           1090 	ld	de,#_Entities + 0 + 158
                           1091 ; genAssign (pointer)
   03B7 3E 00              1092 	ld	a,#0x00
   03B9 12                 1093 	ld	(de),a
                           1094 ; genPlus
                           1095 ; genPlusIncr
   03BA 11 9F 00           1096 	ld	de,#_Entities + 0 + 159
                           1097 ; genAssign (pointer)
   03BD 3E 00              1098 	ld	a,#0x00
   03BF 12                 1099 	ld	(de),a
                           1100 ; genPlus
                           1101 ; genPlusIncr
   03C0 11 A0 00           1102 	ld	de,#_Entities + 0 + 160
                           1103 ; genAssign (pointer)
   03C3 3E 00              1104 	ld	a,#0x00
   03C5 12                 1105 	ld	(de),a
                           1106 ; genPlus
                           1107 ; genPlusIncr
   03C6 11 A1 00           1108 	ld	de,#_Entities + 0 + 161
                           1109 ; genAssign (pointer)
   03C9 3E 00              1110 	ld	a,#0x00
   03CB 12                 1111 	ld	(de),a
                           1112 ; genPlus
                           1113 ; genPlusIncr
   03CC 11 A2 00           1114 	ld	de,#_Entities + 0 + 162
                           1115 ; genAssign (pointer)
   03CF 3E 00              1116 	ld	a,#0x00
   03D1 12                 1117 	ld	(de),a
                           1118 ; genPlus
                           1119 ; genPlusIncr
   03D2 11 A3 00           1120 	ld	de,#_Entities + 0 + 163
                           1121 ; genAssign (pointer)
   03D5 3E 00              1122 	ld	a,#0x00
   03D7 12                 1123 	ld	(de),a
                           1124 ; genPlus
                           1125 ; genPlusIncr
   03D8 11 A4 00           1126 	ld	de,#_Entities + 0 + 164
                           1127 ; genAssign (pointer)
   03DB 3E 00              1128 	ld	a,#0x00
   03DD 12                 1129 	ld	(de),a
                           1130 ; genPlus
                           1131 ; genPlusIncr
   03DE 11 A5 00           1132 	ld	de,#_Entities + 0 + 165
                           1133 ; genAssign (pointer)
   03E1 3E 00              1134 	ld	a,#0x00
   03E3 12                 1135 	ld	(de),a
                           1136 ; genPlus
                           1137 ; genPlusIncr
   03E4 11 A6 00           1138 	ld	de,#_Entities + 0 + 166
                           1139 ; genAssign (pointer)
   03E7 3E 00              1140 	ld	a,#0x00
   03E9 12                 1141 	ld	(de),a
                           1142 ; genPlus
                           1143 ; genPlusIncr
   03EA 11 A7 00           1144 	ld	de,#_Entities + 0 + 167
                           1145 ; genAssign (pointer)
   03ED 3E 00              1146 	ld	a,#0x00
   03EF 12                 1147 	ld	(de),a
                           1148 ; genPlus
                           1149 ; genPlusIncr
   03F0 11 A8 00           1150 	ld	de,#_Entities + 0 + 168
                           1151 ; genAssign (pointer)
   03F3 3E 00              1152 	ld	a,#0x00
   03F5 12                 1153 	ld	(de),a
                           1154 ; genPlus
                           1155 ; genPlusIncr
   03F6 11 A9 00           1156 	ld	de,#_Entities + 0 + 169
                           1157 ; genAssign (pointer)
   03F9 3E 00              1158 	ld	a,#0x00
   03FB 12                 1159 	ld	(de),a
                           1160 ; genPlus
                           1161 ; genPlusIncr
   03FC 11 AA 00           1162 	ld	de,#_Entities + 0 + 170
                           1163 ; genAssign (pointer)
   03FF 3E 00              1164 	ld	a,#0x00
   0401 12                 1165 	ld	(de),a
                           1166 ; genPlus
                           1167 ; genPlusIncr
   0402 11 AB 00           1168 	ld	de,#_Entities + 0 + 171
                           1169 ; genAssign (pointer)
   0405 3E 00              1170 	ld	a,#0x00
   0407 12                 1171 	ld	(de),a
                           1172 ; genPlus
                           1173 ; genPlusIncr
   0408 11 AC 00           1174 	ld	de,#_Entities + 0 + 172
                           1175 ; genAssign (pointer)
   040B 3E 00              1176 	ld	a,#0x00
   040D 12                 1177 	ld	(de),a
                           1178 ; genPlus
                           1179 ; genPlusIncr
   040E 11 AD 00           1180 	ld	de,#_Entities + 0 + 173
                           1181 ; genAssign (pointer)
   0411 3E 00              1182 	ld	a,#0x00
   0413 12                 1183 	ld	(de),a
                           1184 ; genPlus
                           1185 ; genPlusIncr
   0414 11 AE 00           1186 	ld	de,#_Entities + 0 + 174
                           1187 ; genAssign (pointer)
   0417 3E 00              1188 	ld	a,#0x00
   0419 12                 1189 	ld	(de),a
                           1190 ; genPlus
                           1191 ; genPlusIncr
   041A 11 AF 00           1192 	ld	de,#_Entities + 0 + 175
                           1193 ; genAssign (pointer)
   041D 3E 00              1194 	ld	a,#0x00
   041F 12                 1195 	ld	(de),a
                           1196 ;	main.c 104
                           1197 ; genAssign
                           1198 ; AOP_HL for _spriteSize
   0420 21 C0 00           1199 	ld	hl,#_spriteSize + 0
   0423 36 08              1200 	ld	(hl),#0x08
                           1201 ;--------------------------------------------------------
                           1202 ; Home
                           1203 ;--------------------------------------------------------
                           1204 	.area _HOME
                           1205 	.area _CODE
                           1206 ;--------------------------------------------------------
                           1207 ; code
                           1208 ;--------------------------------------------------------
                           1209 	.area _CODE
                           1210 ;	main.c 13
                           1211 ; genLabel
                           1212 ; genFunction
                           1213 ;	---------------------------------
                           1214 ; Function PerfomantDelay
                           1215 ; ---------------------------------
   0000                    1216 ___PerfomantDelay_start:
   0000                    1217 _PerfomantDelay:
   0000 C5                 1218 	push	bc
                           1219 	
                           1220 ;	main.c 16
                           1221 ; genAssign
   0001 0E 00              1222 	ld	c,#0x00
                           1223 ; genLabel
   0003                    1224 00101$:
                           1225 ; genCmpLt
                           1226 ; AOP_STK for 
   0003 AF                 1227 	xor	a,a
   0004 79                 1228 	ld	a,c
   0005 F8 04              1229 	lda	hl,4(sp)
   0007 9E                 1230 	sbc	a,(hl) ; 2
   0008 D2 12 00           1231 	jp	nc,00105$
                           1232 ;	main.c 18
                           1233 ; genCall
   000B CD 00 00           1234 	call	_wait_vbl_done
                           1235 ;	main.c 16
                           1236 ; genPlus
                           1237 ; genPlusIncr
   000E 0C                 1238 	inc	c
                           1239 ; genGoto
   000F C3 03 00           1240 	jp	00101$
                           1241 ; genLabel
   0012                    1242 00105$:
                           1243 ; genEndFunction
                           1244 	
   0012 C1                 1245 	pop	bc
   0013 C9                 1246 	ret
   0014                    1247 ___PerfomantDelay_end:
                           1248 ;	main.c 23
                           1249 ; genLabel
                           1250 ; genFunction
                           1251 ;	---------------------------------
                           1252 ; Function checkCollisions
                           1253 ; ---------------------------------
   0014                    1254 ___checkCollisions_start:
   0014                    1255 _checkCollisions:
   0014 C5                 1256 	push	bc
   0015 E8 F7              1257 	lda	sp,-9(sp)
                           1258 ;	main.c 25
                           1259 ; genAssign
                           1260 ; AOP_STK for 
                           1261 ; AOP_STK for _checkCollisions_sloc0_1_0
   0017 F8 0D              1262 	lda	hl,13(sp)
   0019 2A                 1263 	ld	a,(hl+)
   001A 5E                 1264 	ld	e,(hl)
   001B F8 07              1265 	lda	hl,7(sp)
   001D 22                 1266 	ld	(hl+),a
   001E 73                 1267 	ld	(hl),e
                           1268 ; genPlus
                           1269 ; AOP_STK for _checkCollisions_sloc0_1_0
                           1270 ; genPlusIncr
                           1271 ;	genPlusIncr failed
   001F 2B                 1272 	dec	hl
   0020 5E                 1273 	ld	e,(hl)
   0021 23                 1274 	inc	hl
   0022 56                 1275 	ld	d,(hl)
   0023 21 04 00           1276 	ld	hl,#0x0004
   0026 19                 1277 	add	hl,de
   0027 5D                 1278 	ld	e,l
   0028 54                 1279 	ld	d,h
                           1280 ; genPointerGet
                           1281 ; AOP_STK for _checkCollisions_sloc1_1_0
   0029 1A                 1282 	ld	a,(de)
   002A F8 06              1283 	lda	hl,6(sp)
   002C 77                 1284 	ld	(hl),a
                           1285 ; genAssign
                           1286 ; AOP_STK for 
                           1287 ; AOP_STK for _checkCollisions_sloc2_1_0
   002D F8 0F              1288 	lda	hl,15(sp)
   002F 2A                 1289 	ld	a,(hl+)
   0030 5E                 1290 	ld	e,(hl)
   0031 F8 04              1291 	lda	hl,4(sp)
   0033 22                 1292 	ld	(hl+),a
   0034 73                 1293 	ld	(hl),e
                           1294 ; genPlus
                           1295 ; AOP_STK for _checkCollisions_sloc2_1_0
                           1296 ; genPlusIncr
                           1297 ;	genPlusIncr failed
   0035 2B                 1298 	dec	hl
   0036 5E                 1299 	ld	e,(hl)
   0037 23                 1300 	inc	hl
   0038 56                 1301 	ld	d,(hl)
   0039 21 04 00           1302 	ld	hl,#0x0004
   003C 19                 1303 	add	hl,de
   003D 5D                 1304 	ld	e,l
   003E 54                 1305 	ld	d,h
                           1306 ; genPointerGet
                           1307 ; AOP_STK for _checkCollisions_sloc5_1_0
   003F 1A                 1308 	ld	a,(de)
   0040 F8 01              1309 	lda	hl,1(sp)
   0042 77                 1310 	ld	(hl),a
                           1311 ; genCmpLt
                           1312 ; AOP_STK for _checkCollisions_sloc1_1_0
                           1313 ; AOP_STK for _checkCollisions_sloc5_1_0
   0043 AF                 1314 	xor	a,a
   0044 F8 06              1315 	lda	hl,6(sp)
   0046 7E                 1316 	ld	a,(hl)
   0047 F8 01              1317 	lda	hl,1(sp)
   0049 9E                 1318 	sbc	a,(hl) ; 2
   004A 3E 00              1319 	ld	a,#0x00
   004C 17                 1320 	rla
   004D 47                 1321 	ld	b,a
                           1322 ; genNot
                           1323 ; AOP_STK for _checkCollisions_sloc3_1_0
   004E AF                 1324 	xor	a,a
   004F B0                 1325 	or	a,b
   0050 D6 01              1326 	sub	a,#0x01
   0052 3E 00              1327 	ld	a,#0x00
   0054 17                 1328 	rla
   0055 23                 1329 	inc	hl
   0056 23                 1330 	inc	hl
                           1331 ; genPlus
                           1332 ; AOP_STK for _checkCollisions_sloc2_1_0
                           1333 ; genPlusIncr
                           1334 ;	genPlusIncr failed
   0057 22                 1335 	ld	(hl+),a
   0058 5E                 1336 	ld	e,(hl)
   0059 23                 1337 	inc	hl
   005A 56                 1338 	ld	d,(hl)
   005B 21 06 00           1339 	ld	hl,#0x0006
   005E 19                 1340 	add	hl,de
   005F 5D                 1341 	ld	e,l
   0060 54                 1342 	ld	d,h
                           1343 ; genPointerGet
   0061 1A                 1344 	ld	a,(de)
                           1345 ; genPlus
                           1346 ; AOP_STK for _checkCollisions_sloc5_1_0
                           1347 ;	genPlusIncr failed
   0062 F8 01              1348 	lda	hl,1(sp)
   0064 86                 1349 	add	a,(hl)
   0065 47                 1350 	ld	b,a
                           1351 ; genCmpGt
                           1352 ; AOP_STK for _checkCollisions_sloc1_1_0
   0066 AF                 1353 	xor	a,a
   0067 78                 1354 	ld	a,b
   0068 F8 06              1355 	lda	hl,6(sp)
   006A 9E                 1356 	sbc	a,(hl) ; 2
   006B 3E 00              1357 	ld	a,#0x00
   006D 17                 1358 	rla
   006E 47                 1359 	ld	b,a
                           1360 ; genNot
   006F AF                 1361 	xor	a,a
   0070 B0                 1362 	or	a,b
   0071 D6 01              1363 	sub	a,#0x01
   0073 3E 00              1364 	ld	a,#0x00
   0075 17                 1365 	rla
   0076 47                 1366 	ld	b,a
                           1367 ; genAndOp
                           1368 ; AOP_STK for _checkCollisions_sloc3_1_0
   0077 AF                 1369 	xor	a,a
   0078 F8 03              1370 	lda	hl,3(sp)
   007A B6                 1371 	or	a,(hl)
   007B 28 02              1372 	jr	z,00103$
   007D AF                 1373 	xor	a,a
   007E B0                 1374 	or	a,b
   007F                    1375 00103$:
   007F 28 02              1376 	jr	z,00104$
   0081 3E 01              1377 	ld	a,#0x01
   0083                    1378 00104$:
   0083 F8 03              1379 	lda	hl,3(sp)
   0085 77                 1380 	ld	(hl),a
                           1381 ; genPlus
                           1382 ; AOP_STK for _checkCollisions_sloc0_1_0
                           1383 ; genPlusIncr
                           1384 ;	genPlusIncr failed
   0086 F8 07              1385 	lda	hl,7(sp)
   0088 5E                 1386 	ld	e,(hl)
   0089 23                 1387 	inc	hl
   008A 56                 1388 	ld	d,(hl)
   008B 21 05 00           1389 	ld	hl,#0x0005
   008E 19                 1390 	add	hl,de
   008F 5D                 1391 	ld	e,l
   0090 54                 1392 	ld	d,h
                           1393 ; genPointerGet
                           1394 ; AOP_STK for _checkCollisions_sloc4_1_0
   0091 1A                 1395 	ld	a,(de)
   0092 F8 02              1396 	lda	hl,2(sp)
                           1397 ; genPlus
                           1398 ; AOP_STK for _checkCollisions_sloc2_1_0
                           1399 ; genPlusIncr
                           1400 ;	genPlusIncr failed
   0094 22                 1401 	ld	(hl+),a
   0095 23                 1402 	inc	hl
   0096 5E                 1403 	ld	e,(hl)
   0097 23                 1404 	inc	hl
   0098 56                 1405 	ld	d,(hl)
   0099 21 05 00           1406 	ld	hl,#0x0005
   009C 19                 1407 	add	hl,de
   009D 5D                 1408 	ld	e,l
   009E 54                 1409 	ld	d,h
                           1410 ; genPointerGet
   009F 1A                 1411 	ld	a,(de)
   00A0 47                 1412 	ld	b,a
                           1413 ; genCmpLt
                           1414 ; AOP_STK for _checkCollisions_sloc4_1_0
   00A1 AF                 1415 	xor	a,a
   00A2 F8 02              1416 	lda	hl,2(sp)
   00A4 7E                 1417 	ld	a,(hl)
   00A5 98                 1418 	sbc	a,b ; 2
   00A6 3E 00              1419 	ld	a,#0x00
   00A8 17                 1420 	rla
   00A9 4F                 1421 	ld	c,a
                           1422 ; genNot
                           1423 ; AOP_STK for _checkCollisions_sloc6_1_0
   00AA AF                 1424 	xor	a,a
   00AB B1                 1425 	or	a,c
   00AC D6 01              1426 	sub	a,#0x01
   00AE 3E 00              1427 	ld	a,#0x00
   00B0 17                 1428 	rla
   00B1 2B                 1429 	dec	hl
   00B2 2B                 1430 	dec	hl
   00B3 77                 1431 	ld	(hl),a
                           1432 ; genPlus
                           1433 ; AOP_STK for _checkCollisions_sloc2_1_0
                           1434 ; genPlusIncr
                           1435 ;	genPlusIncr failed
   00B4 F8 04              1436 	lda	hl,4(sp)
   00B6 5E                 1437 	ld	e,(hl)
   00B7 23                 1438 	inc	hl
   00B8 56                 1439 	ld	d,(hl)
   00B9 21 07 00           1440 	ld	hl,#0x0007
   00BC 19                 1441 	add	hl,de
   00BD 5D                 1442 	ld	e,l
   00BE 54                 1443 	ld	d,h
                           1444 ; genPointerGet
   00BF 1A                 1445 	ld	a,(de)
                           1446 ; genPlus
                           1447 ;	genPlusIncr failed
   00C0 80                 1448 	add	a,b
   00C1 4F                 1449 	ld	c,a
                           1450 ; genCmpGt
                           1451 ; AOP_STK for _checkCollisions_sloc4_1_0
   00C2 AF                 1452 	xor	a,a
   00C3 79                 1453 	ld	a,c
   00C4 F8 02              1454 	lda	hl,2(sp)
   00C6 9E                 1455 	sbc	a,(hl) ; 2
   00C7 3E 00              1456 	ld	a,#0x00
   00C9 17                 1457 	rla
   00CA 4F                 1458 	ld	c,a
                           1459 ; genNot
   00CB AF                 1460 	xor	a,a
   00CC B1                 1461 	or	a,c
   00CD D6 01              1462 	sub	a,#0x01
   00CF 3E 00              1463 	ld	a,#0x00
   00D1 17                 1464 	rla
   00D2 4F                 1465 	ld	c,a
                           1466 ; genAndOp
                           1467 ; AOP_STK for _checkCollisions_sloc6_1_0
   00D3 AF                 1468 	xor	a,a
   00D4 2B                 1469 	dec	hl
   00D5 2B                 1470 	dec	hl
   00D6 B6                 1471 	or	a,(hl)
   00D7 28 02              1472 	jr	z,00105$
   00D9 AF                 1473 	xor	a,a
   00DA B1                 1474 	or	a,c
   00DB                    1475 00105$:
   00DB 28 02              1476 	jr	z,00106$
   00DD 3E 01              1477 	ld	a,#0x01
   00DF                    1478 00106$:
   00DF 4F                 1479 	ld	c,a
                           1480 ; genAndOp
                           1481 ; AOP_STK for _checkCollisions_sloc3_1_0
                           1482 ; AOP_STK for _checkCollisions_sloc6_1_0
   00E0 AF                 1483 	xor	a,a
   00E1 F8 03              1484 	lda	hl,3(sp)
   00E3 B6                 1485 	or	a,(hl)
   00E4 28 02              1486 	jr	z,00107$
   00E6 AF                 1487 	xor	a,a
   00E7 B1                 1488 	or	a,c
   00E8                    1489 00107$:
   00E8 28 02              1490 	jr	z,00108$
   00EA 3E 01              1491 	ld	a,#0x01
   00EC                    1492 00108$:
   00EC F8 00              1493 	lda	hl,0(sp)
   00EE 77                 1494 	ld	(hl),a
                           1495 ;	main.c 26
                           1496 ; genCmpLt
                           1497 ; AOP_STK for _checkCollisions_sloc5_1_0
                           1498 ; AOP_STK for _checkCollisions_sloc1_1_0
   00EF AF                 1499 	xor	a,a
   00F0 23                 1500 	inc	hl
   00F1 7E                 1501 	ld	a,(hl)
   00F2 F8 06              1502 	lda	hl,6(sp)
   00F4 9E                 1503 	sbc	a,(hl) ; 2
   00F5 3E 00              1504 	ld	a,#0x00
   00F7 17                 1505 	rla
   00F8 4F                 1506 	ld	c,a
                           1507 ; genNot
                           1508 ; AOP_STK for _checkCollisions_sloc3_1_0
   00F9 AF                 1509 	xor	a,a
   00FA B1                 1510 	or	a,c
   00FB D6 01              1511 	sub	a,#0x01
   00FD 3E 00              1512 	ld	a,#0x00
   00FF 17                 1513 	rla
   0100 F8 03              1514 	lda	hl,3(sp)
   0102 77                 1515 	ld	(hl),a
                           1516 ; genPlus
                           1517 ; AOP_STK for _checkCollisions_sloc0_1_0
                           1518 ; genPlusIncr
                           1519 ;	genPlusIncr failed
   0103 F8 07              1520 	lda	hl,7(sp)
   0105 5E                 1521 	ld	e,(hl)
   0106 23                 1522 	inc	hl
   0107 56                 1523 	ld	d,(hl)
   0108 21 06 00           1524 	ld	hl,#0x0006
   010B 19                 1525 	add	hl,de
   010C 5D                 1526 	ld	e,l
   010D 54                 1527 	ld	d,h
                           1528 ; genPointerGet
   010E 1A                 1529 	ld	a,(de)
                           1530 ; genPlus
                           1531 ; AOP_STK for _checkCollisions_sloc1_1_0
                           1532 ;	genPlusIncr failed
   010F F8 06              1533 	lda	hl,6(sp)
   0111 86                 1534 	add	a,(hl)
   0112 4F                 1535 	ld	c,a
                           1536 ; genCmpGt
                           1537 ; AOP_STK for _checkCollisions_sloc5_1_0
   0113 AF                 1538 	xor	a,a
   0114 79                 1539 	ld	a,c
   0115 F8 01              1540 	lda	hl,1(sp)
   0117 9E                 1541 	sbc	a,(hl) ; 2
   0118 3E 00              1542 	ld	a,#0x00
   011A 17                 1543 	rla
   011B 4F                 1544 	ld	c,a
                           1545 ; genNot
   011C AF                 1546 	xor	a,a
   011D B1                 1547 	or	a,c
   011E D6 01              1548 	sub	a,#0x01
   0120 3E 00              1549 	ld	a,#0x00
   0122 17                 1550 	rla
   0123 4F                 1551 	ld	c,a
                           1552 ; genAndOp
                           1553 ; AOP_STK for _checkCollisions_sloc3_1_0
                           1554 ; AOP_STK for _checkCollisions_sloc5_1_0
   0124 AF                 1555 	xor	a,a
   0125 23                 1556 	inc	hl
   0126 23                 1557 	inc	hl
   0127 B6                 1558 	or	a,(hl)
   0128 28 02              1559 	jr	z,00109$
   012A AF                 1560 	xor	a,a
   012B B1                 1561 	or	a,c
   012C                    1562 00109$:
   012C 28 02              1563 	jr	z,00110$
   012E 3E 01              1564 	ld	a,#0x01
   0130                    1565 00110$:
   0130 F8 01              1566 	lda	hl,1(sp)
   0132 77                 1567 	ld	(hl),a
                           1568 ; genCmpLt
                           1569 ; AOP_STK for _checkCollisions_sloc4_1_0
   0133 AF                 1570 	xor	a,a
   0134 78                 1571 	ld	a,b
   0135 23                 1572 	inc	hl
   0136 9E                 1573 	sbc	a,(hl) ; 2
   0137 3E 00              1574 	ld	a,#0x00
   0139 17                 1575 	rla
   013A 4F                 1576 	ld	c,a
                           1577 ; genNot
                           1578 ; AOP_STK for _checkCollisions_sloc3_1_0
   013B AF                 1579 	xor	a,a
   013C B1                 1580 	or	a,c
   013D D6 01              1581 	sub	a,#0x01
   013F 3E 00              1582 	ld	a,#0x00
   0141 17                 1583 	rla
   0142 23                 1584 	inc	hl
   0143 77                 1585 	ld	(hl),a
                           1586 ; genPlus
                           1587 ; AOP_STK for _checkCollisions_sloc0_1_0
                           1588 ; genPlusIncr
                           1589 ;	genPlusIncr failed
   0144 F8 07              1590 	lda	hl,7(sp)
   0146 5E                 1591 	ld	e,(hl)
   0147 23                 1592 	inc	hl
   0148 56                 1593 	ld	d,(hl)
   0149 21 07 00           1594 	ld	hl,#0x0007
   014C 19                 1595 	add	hl,de
   014D 5D                 1596 	ld	e,l
   014E 54                 1597 	ld	d,h
                           1598 ; genPointerGet
   014F 1A                 1599 	ld	a,(de)
                           1600 ; genPlus
                           1601 ; AOP_STK for _checkCollisions_sloc4_1_0
                           1602 ;	genPlusIncr failed
   0150 F8 02              1603 	lda	hl,2(sp)
   0152 86                 1604 	add	a,(hl)
   0153 4F                 1605 	ld	c,a
                           1606 ; genCmpGt
   0154 AF                 1607 	xor	a,a
   0155 79                 1608 	ld	a,c
   0156 98                 1609 	sbc	a,b ; 2
   0157 3E 00              1610 	ld	a,#0x00
   0159 17                 1611 	rla
   015A 47                 1612 	ld	b,a
                           1613 ; genNot
   015B AF                 1614 	xor	a,a
   015C B0                 1615 	or	a,b
   015D D6 01              1616 	sub	a,#0x01
   015F 3E 00              1617 	ld	a,#0x00
   0161 17                 1618 	rla
   0162 47                 1619 	ld	b,a
                           1620 ; genAndOp
                           1621 ; AOP_STK for _checkCollisions_sloc3_1_0
   0163 AF                 1622 	xor	a,a
   0164 23                 1623 	inc	hl
   0165 B6                 1624 	or	a,(hl)
   0166 28 02              1625 	jr	z,00111$
   0168 AF                 1626 	xor	a,a
   0169 B0                 1627 	or	a,b
   016A                    1628 00111$:
   016A 28 02              1629 	jr	z,00112$
   016C 3E 01              1630 	ld	a,#0x01
   016E                    1631 00112$:
   016E 47                 1632 	ld	b,a
                           1633 ; genAndOp
                           1634 ; AOP_STK for _checkCollisions_sloc5_1_0
   016F AF                 1635 	xor	a,a
   0170 F8 01              1636 	lda	hl,1(sp)
   0172 B6                 1637 	or	a,(hl)
   0173 28 02              1638 	jr	z,00113$
   0175 AF                 1639 	xor	a,a
   0176 B0                 1640 	or	a,b
   0177                    1641 00113$:
   0177 28 02              1642 	jr	z,00114$
   0179 3E 01              1643 	ld	a,#0x01
   017B                    1644 00114$:
   017B 47                 1645 	ld	b,a
                           1646 ; genOrOp
                           1647 ; AOP_STK for _checkCollisions_sloc6_1_0
   017C AF                 1648 	xor	a,a
   017D F8 00              1649 	lda	hl,0(sp)
   017F B6                 1650 	or	a,(hl)
   0180 20 02              1651 	jr	nz,00115$
   0182 AF                 1652 	xor	a,a
   0183 B0                 1653 	or	a,b
   0184                    1654 00115$:
   0184 28 02              1655 	jr	z,00116$
   0186 3E 01              1656 	ld	a,#0x01
   0188                    1657 00116$:
   0188 47                 1658 	ld	b,a
                           1659 ; genRet
   0189 58                 1660 	ld	e,b
                           1661 ; genLabel
   018A                    1662 00101$:
                           1663 ; genEndFunction
   018A E8 09              1664 	lda	sp,9(sp)
   018C C1                 1665 	pop	bc
   018D C9                 1666 	ret
   018E                    1667 ___checkCollisions_end:
                           1668 ;	main.c 28
                           1669 ; genLabel
                           1670 ; genFunction
                           1671 ;	---------------------------------
                           1672 ; Function MoveCharacter
                           1673 ; ---------------------------------
   018E                    1674 ___MoveCharacter_start:
   018E                    1675 _MoveCharacter:
   018E C5                 1676 	push	bc
   018F E8 FD              1677 	lda	sp,-3(sp)
                           1678 ;	main.c 30
                           1679 ; genAssign
                           1680 ; AOP_STK for 
                           1681 ; AOP_STK for _MoveCharacter_sloc1_1_0
   0191 F8 07              1682 	lda	hl,7(sp)
   0193 2A                 1683 	ld	a,(hl+)
   0194 5E                 1684 	ld	e,(hl)
   0195 F8 00              1685 	lda	hl,0(sp)
   0197 22                 1686 	ld	(hl+),a
   0198 73                 1687 	ld	(hl),e
                           1688 ; genPointerGet
                           1689 ; AOP_STK for _MoveCharacter_sloc1_1_0
                           1690 ; AOP_STK for _MoveCharacter_sloc0_1_0
   0199 2B                 1691 	dec	hl
   019A 5E                 1692 	ld	e,(hl)
   019B 23                 1693 	inc	hl
   019C 56                 1694 	ld	d,(hl)
   019D 1A                 1695 	ld	a,(de)
   019E 23                 1696 	inc	hl
   019F 77                 1697 	ld	(hl),a
                           1698 ; genIpush
                           1699 ; AOP_STK for 
   01A0 F8 0A              1700 	lda	hl,10(sp)
   01A2 7E                 1701 	ld	a,(hl)
   01A3 F5                 1702 	push	af
   01A4 33                 1703 	inc	sp
                           1704 ; genIpush
                           1705 ; AOP_STK for 
   01A5 2B                 1706 	dec	hl
   01A6 7E                 1707 	ld	a,(hl)
   01A7 F5                 1708 	push	af
   01A8 33                 1709 	inc	sp
                           1710 ; genIpush
                           1711 ; AOP_STK for _MoveCharacter_sloc0_1_0
   01A9 F8 04              1712 	lda	hl,4(sp)
   01AB 7E                 1713 	ld	a,(hl)
   01AC F5                 1714 	push	af
   01AD 33                 1715 	inc	sp
                           1716 ; genCall
   01AE CD 00 00           1717 	call	_move_sprite
   01B1 E8 03              1718 	lda	sp,3(sp)
                           1719 ;	main.c 31
                           1720 ; genPlus
                           1721 ; AOP_STK for 
                           1722 ; AOP_HL for _spriteSize
                           1723 ;	genPlusIncr failed
   01B3 F8 09              1724 	lda	hl,9(sp)
   01B5 7E                 1725 	ld	a,(hl)
   01B6 21 C0 00           1726 	ld	hl,#_spriteSize + 0
   01B9 86                 1727 	add	a,(hl)
   01BA 4F                 1728 	ld	c,a
                           1729 ; genPlus
                           1730 ; AOP_STK for _MoveCharacter_sloc1_1_0
                           1731 ; genPlusIncr
   01BB F8 00              1732 	lda	hl,0(sp)
   01BD 5E                 1733 	ld	e,(hl)
   01BE 23                 1734 	inc	hl
   01BF 56                 1735 	ld	d,(hl)
   01C0 13                 1736 	inc	de
                           1737 ; genPointerGet
   01C1 1A                 1738 	ld	a,(de)
   01C2 47                 1739 	ld	b,a
                           1740 ; genIpush
                           1741 ; AOP_STK for 
   01C3 F8 0A              1742 	lda	hl,10(sp)
   01C5 7E                 1743 	ld	a,(hl)
   01C6 F5                 1744 	push	af
   01C7 33                 1745 	inc	sp
                           1746 ; genIpush
   01C8 79                 1747 	ld	a,c
   01C9 F5                 1748 	push	af
   01CA 33                 1749 	inc	sp
                           1750 ; genIpush
   01CB 78                 1751 	ld	a,b
   01CC F5                 1752 	push	af
   01CD 33                 1753 	inc	sp
                           1754 ; genCall
   01CE CD 00 00           1755 	call	_move_sprite
   01D1 E8 03              1756 	lda	sp,3(sp)
                           1757 ;	main.c 32
                           1758 ; genPlus
                           1759 ; AOP_STK for 
                           1760 ; AOP_HL for _spriteSize
                           1761 ; AOP_STK for _MoveCharacter_sloc0_1_0
                           1762 ;	genPlusIncr failed
   01D3 F8 0A              1763 	lda	hl,10(sp)
   01D5 7E                 1764 	ld	a,(hl)
   01D6 21 C0 00           1765 	ld	hl,#_spriteSize + 0
   01D9 86                 1766 	add	a,(hl)
   01DA F8 02              1767 	lda	hl,2(sp)
   01DC 77                 1768 	ld	(hl),a
                           1769 ; genPlus
                           1770 ; AOP_STK for _MoveCharacter_sloc1_1_0
                           1771 ; genPlusIncr
   01DD 2B                 1772 	dec	hl
   01DE 2B                 1773 	dec	hl
   01DF 5E                 1774 	ld	e,(hl)
   01E0 23                 1775 	inc	hl
   01E1 56                 1776 	ld	d,(hl)
   01E2 13                 1777 	inc	de
   01E3 13                 1778 	inc	de
                           1779 ; genPointerGet
   01E4 1A                 1780 	ld	a,(de)
   01E5 47                 1781 	ld	b,a
                           1782 ; genIpush
                           1783 ; AOP_STK for _MoveCharacter_sloc0_1_0
   01E6 23                 1784 	inc	hl
   01E7 7E                 1785 	ld	a,(hl)
   01E8 F5                 1786 	push	af
   01E9 33                 1787 	inc	sp
                           1788 ; genIpush
                           1789 ; AOP_STK for 
   01EA F8 0A              1790 	lda	hl,10(sp)
   01EC 7E                 1791 	ld	a,(hl)
   01ED F5                 1792 	push	af
   01EE 33                 1793 	inc	sp
                           1794 ; genIpush
   01EF 78                 1795 	ld	a,b
   01F0 F5                 1796 	push	af
   01F1 33                 1797 	inc	sp
                           1798 ; genCall
   01F2 CD 00 00           1799 	call	_move_sprite
   01F5 E8 03              1800 	lda	sp,3(sp)
                           1801 ;	main.c 33
                           1802 ; genPlus
                           1803 ; AOP_STK for _MoveCharacter_sloc1_1_0
                           1804 ; genPlusIncr
                           1805 ;	genPlusIncr failed
   01F7 F8 00              1806 	lda	hl,0(sp)
   01F9 5E                 1807 	ld	e,(hl)
   01FA 23                 1808 	inc	hl
   01FB 56                 1809 	ld	d,(hl)
   01FC 21 03 00           1810 	ld	hl,#0x0003
   01FF 19                 1811 	add	hl,de
   0200 5D                 1812 	ld	e,l
   0201 54                 1813 	ld	d,h
                           1814 ; genPointerGet
   0202 1A                 1815 	ld	a,(de)
   0203 47                 1816 	ld	b,a
                           1817 ; genIpush
                           1818 ; AOP_STK for _MoveCharacter_sloc0_1_0
   0204 F8 02              1819 	lda	hl,2(sp)
   0206 7E                 1820 	ld	a,(hl)
   0207 F5                 1821 	push	af
   0208 33                 1822 	inc	sp
                           1823 ; genIpush
   0209 79                 1824 	ld	a,c
   020A F5                 1825 	push	af
   020B 33                 1826 	inc	sp
                           1827 ; genIpush
   020C 78                 1828 	ld	a,b
   020D F5                 1829 	push	af
   020E 33                 1830 	inc	sp
                           1831 ; genCall
   020F CD 00 00           1832 	call	_move_sprite
   0212 E8 03              1833 	lda	sp,3(sp)
                           1834 ; genLabel
   0214                    1835 00101$:
                           1836 ; genEndFunction
   0214 E8 03              1837 	lda	sp,3(sp)
   0216 C1                 1838 	pop	bc
   0217 C9                 1839 	ret
   0218                    1840 ___MoveCharacter_end:
                           1841 ;	main.c 36
                           1842 ; genLabel
                           1843 ; genFunction
                           1844 ;	---------------------------------
                           1845 ; Function SetupPlayer
                           1846 ; ---------------------------------
   0218                    1847 ___SetupPlayer_start:
   0218                    1848 _SetupPlayer:
   0218 C5                 1849 	push	bc
   0219 E8 FD              1850 	lda	sp,-3(sp)
                           1851 ;	main.c 38
                           1852 ; genPlus
                           1853 ; AOP_STK for _SetupPlayer_sloc0_1_0
                           1854 ; genPlusIncr
                           1855 ;	genPlusIncr failed
   021B 11 B0 00           1856 	ld	de,#_player + 0
   021E 21 04 00           1857 	ld	hl,#0x0004
   0221 19                 1858 	add	hl,de
   0222 7D                 1859 	ld	a,l
   0223 54                 1860 	ld	d,h
   0224 F8 01              1861 	lda	hl,1(sp)
   0226 22                 1862 	ld	(hl+),a
   0227 72                 1863 	ld	(hl),d
                           1864 ; genAssign (pointer)
                           1865 ; AOP_STK for _SetupPlayer_sloc0_1_0
   0228 2B                 1866 	dec	hl
   0229 5E                 1867 	ld	e,(hl)
   022A 23                 1868 	inc	hl
   022B 56                 1869 	ld	d,(hl)
   022C 3E 0A              1870 	ld	a,#0x0A
   022E 12                 1871 	ld	(de),a
                           1872 ;	main.c 39
                           1873 ; genPlus
                           1874 ; genPlusIncr
   022F 01 B5 00           1875 	ld	bc,#_player + 0 + 5
                           1876 ; genAssign (pointer)
   0232 3E 48              1877 	ld	a,#0x48
   0234 02                 1878 	ld	(bc),a
                           1879 ;	main.c 40
                           1880 ; genPlus
                           1881 ; genPlusIncr
   0235 11 B6 00           1882 	ld	de,#_player + 0 + 6
                           1883 ; genAssign (pointer)
   0238 3E 10              1884 	ld	a,#0x10
   023A 12                 1885 	ld	(de),a
                           1886 ;	main.c 41
                           1887 ; genPlus
                           1888 ; genPlusIncr
   023B 11 B7 00           1889 	ld	de,#_player + 0 + 7
                           1890 ; genAssign (pointer)
   023E 3E 10              1891 	ld	a,#0x10
   0240 12                 1892 	ld	(de),a
                           1893 ;	main.c 43
                           1894 ; genIpush
   0241 3E 00              1895 	ld	a,#0x00
   0243 F5                 1896 	push	af
   0244 33                 1897 	inc	sp
                           1898 ; genIpush
   0245 3E 00              1899 	ld	a,#0x00
   0247 F5                 1900 	push	af
   0248 33                 1901 	inc	sp
                           1902 ; genCall
   0249 CD 00 00           1903 	call	_set_sprite_tile
   024C E8 02              1904 	lda	sp,2(sp)
                           1905 ;	main.c 44
                           1906 ; genAssign (pointer)
   024E 11 B0 00           1907 	ld	de,#_player + 0
   0251 3E 00              1908 	ld	a,#0x00
   0253 12                 1909 	ld	(de),a
                           1910 ;	main.c 45
                           1911 ; genIpush
   0254 3E 01              1912 	ld	a,#0x01
   0256 F5                 1913 	push	af
   0257 33                 1914 	inc	sp
                           1915 ; genIpush
   0258 3E 01              1916 	ld	a,#0x01
   025A F5                 1917 	push	af
   025B 33                 1918 	inc	sp
                           1919 ; genCall
   025C CD 00 00           1920 	call	_set_sprite_tile
   025F E8 02              1921 	lda	sp,2(sp)
                           1922 ;	main.c 46
                           1923 ; genPlus
                           1924 ; genPlusIncr
   0261 11 B1 00           1925 	ld	de,#_player + 0 + 1
                           1926 ; genAssign (pointer)
   0264 3E 01              1927 	ld	a,#0x01
   0266 12                 1928 	ld	(de),a
                           1929 ;	main.c 47
                           1930 ; genIpush
   0267 3E 02              1931 	ld	a,#0x02
   0269 F5                 1932 	push	af
   026A 33                 1933 	inc	sp
                           1934 ; genIpush
   026B 3E 02              1935 	ld	a,#0x02
   026D F5                 1936 	push	af
   026E 33                 1937 	inc	sp
                           1938 ; genCall
   026F CD 00 00           1939 	call	_set_sprite_tile
   0272 E8 02              1940 	lda	sp,2(sp)
                           1941 ;	main.c 48
                           1942 ; genPlus
                           1943 ; genPlusIncr
   0274 11 B2 00           1944 	ld	de,#_player + 0 + 2
                           1945 ; genAssign (pointer)
   0277 3E 02              1946 	ld	a,#0x02
   0279 12                 1947 	ld	(de),a
                           1948 ;	main.c 49
                           1949 ; genIpush
   027A 3E 03              1950 	ld	a,#0x03
   027C F5                 1951 	push	af
   027D 33                 1952 	inc	sp
                           1953 ; genIpush
   027E 3E 03              1954 	ld	a,#0x03
   0280 F5                 1955 	push	af
   0281 33                 1956 	inc	sp
                           1957 ; genCall
   0282 CD 00 00           1958 	call	_set_sprite_tile
   0285 E8 02              1959 	lda	sp,2(sp)
                           1960 ;	main.c 50
                           1961 ; genPlus
                           1962 ; genPlusIncr
   0287 11 B3 00           1963 	ld	de,#_player + 0 + 3
                           1964 ; genAssign (pointer)
   028A 3E 03              1965 	ld	a,#0x03
   028C 12                 1966 	ld	(de),a
                           1967 ;	main.c 52
                           1968 ; genPointerGet
                           1969 ; AOP_STK for _SetupPlayer_sloc1_1_0
   028D 0A                 1970 	ld	a,(bc)
   028E F8 00              1971 	lda	hl,0(sp)
                           1972 ; genPointerGet
                           1973 ; AOP_STK for _SetupPlayer_sloc0_1_0
   0290 22                 1974 	ld	(hl+),a
   0291 5E                 1975 	ld	e,(hl)
   0292 23                 1976 	inc	hl
   0293 56                 1977 	ld	d,(hl)
   0294 1A                 1978 	ld	a,(de)
   0295 4F                 1979 	ld	c,a
                           1980 ; genIpush
                           1981 ; AOP_STK for _SetupPlayer_sloc1_1_0
   0296 2B                 1982 	dec	hl
   0297 2B                 1983 	dec	hl
   0298 7E                 1984 	ld	a,(hl)
   0299 F5                 1985 	push	af
   029A 33                 1986 	inc	sp
                           1987 ; genIpush
   029B 79                 1988 	ld	a,c
   029C F5                 1989 	push	af
   029D 33                 1990 	inc	sp
                           1991 ; genIpush
   029E 21 B0 00           1992 	ld	hl,#_player + 0
   02A1 E5                 1993 	push	hl
                           1994 ; genCall
   02A2 CD 8E 01           1995 	call	_MoveCharacter
   02A5 E8 04              1996 	lda	sp,4(sp)
                           1997 ; genLabel
   02A7                    1998 00101$:
                           1999 ; genEndFunction
   02A7 E8 03              2000 	lda	sp,3(sp)
   02A9 C1                 2001 	pop	bc
   02AA C9                 2002 	ret
   02AB                    2003 ___SetupPlayer_end:
                           2004 ;	main.c 55
                           2005 ; genLabel
                           2006 ; genFunction
                           2007 ;	---------------------------------
                           2008 ; Function SetupEnemy
                           2009 ; ---------------------------------
   02AB                    2010 ___SetupEnemy_start:
   02AB                    2011 _SetupEnemy:
   02AB C5                 2012 	push	bc
                           2013 	
                           2014 ;	main.c 57
                           2015 ; genPlus
                           2016 ; genPlusIncr
   02AC 01 BC 00           2017 	ld	bc,#_enemy + 0 + 4
                           2018 ; genAssign (pointer)
   02AF 3E A0              2019 	ld	a,#0xA0
   02B1 02                 2020 	ld	(bc),a
                           2021 ;	main.c 58
                           2022 ; genPlus
                           2023 ; genPlusIncr
   02B2 11 BD 00           2024 	ld	de,#_enemy + 0 + 5
                           2025 ; genAssign (pointer)
                           2026 ; AOP_STK for 
   02B5 F8 04              2027 	lda	hl,4(sp)
   02B7 7E                 2028 	ld	a,(hl)
   02B8 12                 2029 	ld	(de),a
                           2030 ;	main.c 59
                           2031 ; genPlus
                           2032 ; genPlusIncr
   02B9 11 BE 00           2033 	ld	de,#_enemy + 0 + 6
                           2034 ; genAssign (pointer)
   02BC 3E 10              2035 	ld	a,#0x10
   02BE 12                 2036 	ld	(de),a
                           2037 ;	main.c 60
                           2038 ; genPlus
                           2039 ; genPlusIncr
   02BF 11 BF 00           2040 	ld	de,#_enemy + 0 + 7
                           2041 ; genAssign (pointer)
   02C2 3E 10              2042 	ld	a,#0x10
   02C4 12                 2043 	ld	(de),a
                           2044 ;	main.c 62
                           2045 ; genIpush
   02C5 3E 05              2046 	ld	a,#0x05
   02C7 F5                 2047 	push	af
   02C8 33                 2048 	inc	sp
                           2049 ; genIpush
   02C9 3E 05              2050 	ld	a,#0x05
   02CB F5                 2051 	push	af
   02CC 33                 2052 	inc	sp
                           2053 ; genCall
   02CD CD 00 00           2054 	call	_set_sprite_tile
   02D0 E8 02              2055 	lda	sp,2(sp)
                           2056 ;	main.c 63
                           2057 ; genAssign (pointer)
   02D2 11 B8 00           2058 	ld	de,#_enemy + 0
   02D5 3E 05              2059 	ld	a,#0x05
   02D7 12                 2060 	ld	(de),a
                           2061 ;	main.c 64
                           2062 ; genIpush
   02D8 3E 06              2063 	ld	a,#0x06
   02DA F5                 2064 	push	af
   02DB 33                 2065 	inc	sp
                           2066 ; genIpush
   02DC 3E 06              2067 	ld	a,#0x06
   02DE F5                 2068 	push	af
   02DF 33                 2069 	inc	sp
                           2070 ; genCall
   02E0 CD 00 00           2071 	call	_set_sprite_tile
   02E3 E8 02              2072 	lda	sp,2(sp)
                           2073 ;	main.c 65
                           2074 ; genPlus
                           2075 ; genPlusIncr
   02E5 11 B9 00           2076 	ld	de,#_enemy + 0 + 1
                           2077 ; genAssign (pointer)
   02E8 3E 06              2078 	ld	a,#0x06
   02EA 12                 2079 	ld	(de),a
                           2080 ;	main.c 66
                           2081 ; genIpush
   02EB 3E 07              2082 	ld	a,#0x07
   02ED F5                 2083 	push	af
   02EE 33                 2084 	inc	sp
                           2085 ; genIpush
   02EF 3E 07              2086 	ld	a,#0x07
   02F1 F5                 2087 	push	af
   02F2 33                 2088 	inc	sp
                           2089 ; genCall
   02F3 CD 00 00           2090 	call	_set_sprite_tile
   02F6 E8 02              2091 	lda	sp,2(sp)
                           2092 ;	main.c 67
                           2093 ; genPlus
                           2094 ; genPlusIncr
   02F8 11 BA 00           2095 	ld	de,#_enemy + 0 + 2
                           2096 ; genAssign (pointer)
   02FB 3E 07              2097 	ld	a,#0x07
   02FD 12                 2098 	ld	(de),a
                           2099 ;	main.c 68
                           2100 ; genIpush
   02FE 3E 08              2101 	ld	a,#0x08
   0300 F5                 2102 	push	af
   0301 33                 2103 	inc	sp
                           2104 ; genIpush
   0302 3E 08              2105 	ld	a,#0x08
   0304 F5                 2106 	push	af
   0305 33                 2107 	inc	sp
                           2108 ; genCall
   0306 CD 00 00           2109 	call	_set_sprite_tile
   0309 E8 02              2110 	lda	sp,2(sp)
                           2111 ;	main.c 69
                           2112 ; genPlus
                           2113 ; genPlusIncr
   030B 11 BB 00           2114 	ld	de,#_enemy + 0 + 3
                           2115 ; genAssign (pointer)
   030E 3E 08              2116 	ld	a,#0x08
   0310 12                 2117 	ld	(de),a
                           2118 ;	main.c 71
                           2119 ; genPointerGet
   0311 0A                 2120 	ld	a,(bc)
   0312 4F                 2121 	ld	c,a
                           2122 ; genIpush
                           2123 ; AOP_STK for 
   0313 F8 04              2124 	lda	hl,4(sp)
   0315 7E                 2125 	ld	a,(hl)
   0316 F5                 2126 	push	af
   0317 33                 2127 	inc	sp
                           2128 ; genIpush
   0318 79                 2129 	ld	a,c
   0319 F5                 2130 	push	af
   031A 33                 2131 	inc	sp
                           2132 ; genIpush
   031B 21 B8 00           2133 	ld	hl,#_enemy + 0
   031E E5                 2134 	push	hl
                           2135 ; genCall
   031F CD 8E 01           2136 	call	_MoveCharacter
   0322 E8 04              2137 	lda	sp,4(sp)
                           2138 ; genLabel
   0324                    2139 00101$:
                           2140 ; genEndFunction
                           2141 	
   0324 C1                 2142 	pop	bc
   0325 C9                 2143 	ret
   0326                    2144 ___SetupEnemy_end:
                           2145 ;	main.c 74
                           2146 ; genLabel
                           2147 ; genFunction
                           2148 ;	---------------------------------
                           2149 ; Function main
                           2150 ; ---------------------------------
   0326                    2151 ___main_start:
   0326                    2152 _main:
   0326 C5                 2153 	push	bc
   0327 E8 F6              2154 	lda	sp,-10(sp)
                           2155 ;	main.c 76
                           2156 ; genIpush
   0329 21 00 00           2157 	ld	hl,#_Entities + 0
   032C E5                 2158 	push	hl
                           2159 ; genIpush
   032D 3E 09              2160 	ld	a,#0x09
   032F F5                 2161 	push	af
   0330 33                 2162 	inc	sp
                           2163 ; genIpush
   0331 3E 00              2164 	ld	a,#0x00
   0333 F5                 2165 	push	af
   0334 33                 2166 	inc	sp
                           2167 ; genCall
   0335 CD 00 00           2168 	call	_set_sprite_data
   0338 E8 04              2169 	lda	sp,4(sp)
                           2170 ;	main.c 77
                           2171 ; genCall
   033A CD 18 02           2172 	call	_SetupPlayer
                           2173 ;	main.c 78
                           2174 ; genPlus
                           2175 ; AOP_STK for _main_sloc1_1_0
                           2176 ; genPlusIncr
                           2177 ;	genPlusIncr failed
   033D 11 B0 00           2178 	ld	de,#_player + 0
   0340 21 05 00           2179 	ld	hl,#0x0005
   0343 19                 2180 	add	hl,de
   0344 7D                 2181 	ld	a,l
   0345 54                 2182 	ld	d,h
   0346 F8 07              2183 	lda	hl,7(sp)
   0348 22                 2184 	ld	(hl+),a
   0349 72                 2185 	ld	(hl),d
                           2186 ; genPointerGet
                           2187 ; AOP_STK for _main_sloc1_1_0
                           2188 ; AOP_STK for _main_sloc0_1_0
   034A 2B                 2189 	dec	hl
   034B 5E                 2190 	ld	e,(hl)
   034C 23                 2191 	inc	hl
   034D 56                 2192 	ld	d,(hl)
   034E 1A                 2193 	ld	a,(de)
   034F 23                 2194 	inc	hl
   0350 77                 2195 	ld	(hl),a
                           2196 ; genIpush
                           2197 ; AOP_STK for _main_sloc0_1_0
   0351 7E                 2198 	ld	a,(hl)
   0352 F5                 2199 	push	af
   0353 33                 2200 	inc	sp
                           2201 ; genCall
   0354 CD AB 02           2202 	call	_SetupEnemy
   0357 E8 01              2203 	lda	sp,1(sp)
                           2204 ;	main.c 79
                           2205 ; genOr
                           2206 ; AOP_SFR for _LCDC_REG
                           2207 ; Type res[4] = l[4]&r[1]
                           2208 ; Size res[1] = l[1]&r[1]
   0359 F0 00              2209 	ldh	a,(_LCDC_REG+0) ; x
   035B F6 02              2210 	or	a,#0x02
   035D E0 00              2211 	ldh	(_LCDC_REG+0),a
                           2212 ;	main.c 80
                           2213 ; genOr
                           2214 ; AOP_SFR for _LCDC_REG
                           2215 ; Type res[4] = l[4]&r[1]
                           2216 ; Size res[1] = l[1]&r[1]
   035F F0 00              2217 	ldh	a,(_LCDC_REG+0) ; x
   0361 F6 80              2218 	or	a,#0x80
   0363 E0 00              2219 	ldh	(_LCDC_REG+0),a
                           2220 ;	main.c 82
                           2221 ; genPlus
                           2222 ; AOP_STK for _main_sloc2_1_0
                           2223 ; genPlusIncr
                           2224 ;	genPlusIncr failed
   0365 11 B0 00           2225 	ld	de,#_player + 0
   0368 21 04 00           2226 	ld	hl,#0x0004
   036B 19                 2227 	add	hl,de
   036C 7D                 2228 	ld	a,l
   036D 54                 2229 	ld	d,h
   036E F8 05              2230 	lda	hl,5(sp)
   0370 22                 2231 	ld	(hl+),a
   0371 72                 2232 	ld	(hl),d
                           2233 ; genMinus
                           2234 ; AOP_STK for _main_sloc0_1_0
                           2235 ; AOP_STK for _main_sloc3_1_0
   0372 F8 09              2236 	lda	hl,9(sp)
   0374 7E                 2237 	ld	a,(hl)
   0375 C6 FC              2238 	add	a,#0xFC
   0377 F8 04              2239 	lda	hl,4(sp)
   0379 77                 2240 	ld	(hl),a
                           2241 ; genLabel
   037A                    2242 00108$:
                           2243 ; genIpush
   037A 21 B8 00           2244 	ld	hl,#_enemy + 0
   037D E5                 2245 	push	hl
                           2246 ; genIpush
   037E 21 B0 00           2247 	ld	hl,#_player + 0
   0381 E5                 2248 	push	hl
                           2249 ; genCall
   0382 CD 14 00           2250 	call	_checkCollisions
   0385 43                 2251 	ld	b,e
   0386 E8 04              2252 	lda	sp,4(sp)
                           2253 ; genIfx
                           2254 ; Removed redundent or a,a
   0388 AF                 2255 	xor	a,a
   0389 B0                 2256 	or	a,b
   038A C2 60 04           2257 	jp	nz,00110$
                           2258 ;	main.c 84
                           2259 ; genCall
   038D CD 00 00           2260 	call	_joypad
   0390 43                 2261 	ld	b,e
                           2262 ; genAnd
   0391 78                 2263 	ld	a,b
   0392 CB 57              2264 	bit	2,a
   0394 CA BA 03           2265 	jp	z,00104$
                           2266 ;	main.c 86
                           2267 ; genAssign (pointer)
                           2268 ; AOP_STK for _main_sloc1_1_0
                           2269 ; AOP_STK for _main_sloc3_1_0
   0397 F8 07              2270 	lda	hl,7(sp)
   0399 5E                 2271 	ld	e,(hl)
   039A 23                 2272 	inc	hl
   039B 56                 2273 	ld	d,(hl)
   039C F8 04              2274 	lda	hl,4(sp)
   039E 7E                 2275 	ld	a,(hl)
   039F 12                 2276 	ld	(de),a
                           2277 ;	main.c 87
                           2278 ; genPointerGet
                           2279 ; AOP_STK for _main_sloc2_1_0
   03A0 23                 2280 	inc	hl
   03A1 5E                 2281 	ld	e,(hl)
   03A2 23                 2282 	inc	hl
   03A3 56                 2283 	ld	d,(hl)
   03A4 1A                 2284 	ld	a,(de)
   03A5 47                 2285 	ld	b,a
                           2286 ; genIpush
                           2287 ; AOP_STK for _main_sloc3_1_0
   03A6 2B                 2288 	dec	hl
   03A7 2B                 2289 	dec	hl
   03A8 7E                 2290 	ld	a,(hl)
   03A9 F5                 2291 	push	af
   03AA 33                 2292 	inc	sp
                           2293 ; genIpush
   03AB 78                 2294 	ld	a,b
   03AC F5                 2295 	push	af
   03AD 33                 2296 	inc	sp
                           2297 ; genIpush
   03AE 21 B0 00           2298 	ld	hl,#_player + 0
   03B1 E5                 2299 	push	hl
                           2300 ; genCall
   03B2 CD 8E 01           2301 	call	_MoveCharacter
   03B5 E8 04              2302 	lda	sp,4(sp)
                           2303 ; genGoto
   03B7 C3 F0 03           2304 	jp	00105$
                           2305 ; genLabel
   03BA                    2306 00104$:
                           2307 ;	main.c 88
                           2308 ; genCall
   03BA CD 00 00           2309 	call	_joypad
   03BD 43                 2310 	ld	b,e
                           2311 ; genAnd
   03BE 78                 2312 	ld	a,b
   03BF CB 5F              2313 	bit	3,a
   03C1 CA F0 03           2314 	jp	z,00105$
                           2315 ;	main.c 90
                           2316 ; genPointerGet
                           2317 ; AOP_STK for _main_sloc1_1_0
   03C4 F8 07              2318 	lda	hl,7(sp)
   03C6 5E                 2319 	ld	e,(hl)
   03C7 23                 2320 	inc	hl
   03C8 56                 2321 	ld	d,(hl)
   03C9 1A                 2322 	ld	a,(de)
   03CA 47                 2323 	ld	b,a
                           2324 ; genPlus
                           2325 ; AOP_STK for _main_sloc0_1_0
                           2326 ; genPlusIncr
                           2327 ;	genPlusIncr failed
   03CB 78                 2328 	ld	a,b
   03CC C6 04              2329 	add	a,#0x04
   03CE 23                 2330 	inc	hl
   03CF 77                 2331 	ld	(hl),a
                           2332 ; genAssign (pointer)
                           2333 ; AOP_STK for _main_sloc1_1_0
                           2334 ; AOP_STK for _main_sloc0_1_0
   03D0 2B                 2335 	dec	hl
   03D1 2B                 2336 	dec	hl
   03D2 5E                 2337 	ld	e,(hl)
   03D3 23                 2338 	inc	hl
   03D4 56                 2339 	ld	d,(hl)
   03D5 23                 2340 	inc	hl
   03D6 7E                 2341 	ld	a,(hl)
   03D7 12                 2342 	ld	(de),a
                           2343 ;	main.c 91
                           2344 ; genPointerGet
                           2345 ; AOP_STK for _main_sloc2_1_0
   03D8 F8 05              2346 	lda	hl,5(sp)
   03DA 5E                 2347 	ld	e,(hl)
   03DB 23                 2348 	inc	hl
   03DC 56                 2349 	ld	d,(hl)
   03DD 1A                 2350 	ld	a,(de)
   03DE 47                 2351 	ld	b,a
                           2352 ; genIpush
                           2353 ; AOP_STK for _main_sloc0_1_0
   03DF F8 09              2354 	lda	hl,9(sp)
   03E1 7E                 2355 	ld	a,(hl)
   03E2 F5                 2356 	push	af
   03E3 33                 2357 	inc	sp
                           2358 ; genIpush
   03E4 78                 2359 	ld	a,b
   03E5 F5                 2360 	push	af
   03E6 33                 2361 	inc	sp
                           2362 ; genIpush
   03E7 21 B0 00           2363 	ld	hl,#_player + 0
   03EA E5                 2364 	push	hl
                           2365 ; genCall
   03EB CD 8E 01           2366 	call	_MoveCharacter
   03EE E8 04              2367 	lda	sp,4(sp)
                           2368 ; genLabel
   03F0                    2369 00105$:
                           2370 ;	main.c 93
                           2371 ; genPlus
                           2372 ; AOP_STK for _main_sloc4_1_0
                           2373 ; genPlusIncr
                           2374 ;	genPlusIncr failed
   03F0 11 B8 00           2375 	ld	de,#_enemy + 0
   03F3 21 04 00           2376 	ld	hl,#0x0004
   03F6 19                 2377 	add	hl,de
   03F7 7D                 2378 	ld	a,l
   03F8 54                 2379 	ld	d,h
   03F9 F8 02              2380 	lda	hl,2(sp)
   03FB 22                 2381 	ld	(hl+),a
   03FC 72                 2382 	ld	(hl),d
                           2383 ; genPointerGet
                           2384 ; AOP_STK for _main_sloc4_1_0
                           2385 ; AOP_STK for _main_sloc0_1_0
   03FD 2B                 2386 	dec	hl
   03FE 5E                 2387 	ld	e,(hl)
   03FF 23                 2388 	inc	hl
   0400 56                 2389 	ld	d,(hl)
   0401 1A                 2390 	ld	a,(de)
   0402 F8 09              2391 	lda	hl,9(sp)
   0404 77                 2392 	ld	(hl),a
                           2393 ; genMinus
                           2394 ; AOP_STK for _main_sloc0_1_0
   0405 7E                 2395 	ld	a,(hl)
   0406 C6 F6              2396 	add	a,#0xF6
   0408 4F                 2397 	ld	c,a
                           2398 ; genAssign (pointer)
                           2399 ; AOP_STK for _main_sloc4_1_0
   0409 F8 02              2400 	lda	hl,2(sp)
   040B 5E                 2401 	ld	e,(hl)
   040C 23                 2402 	inc	hl
   040D 56                 2403 	ld	d,(hl)
   040E 79                 2404 	ld	a,c
   040F 12                 2405 	ld	(de),a
                           2406 ;	main.c 94
                           2407 ; genCmpGt
   0410 AF                 2408 	xor	a,a
   0411 3E 00              2409 	ld	a,#0x00
   0413 99                 2410 	sbc	a,c ; 2
   0414 DA 39 04           2411 	jp	c,00107$
                           2412 ;	main.c 96
                           2413 ; genAssign (pointer)
                           2414 ; AOP_STK for _main_sloc4_1_0
   0417 2B                 2415 	dec	hl
   0418 5E                 2416 	ld	e,(hl)
   0419 23                 2417 	inc	hl
   041A 56                 2418 	ld	d,(hl)
   041B 3E A0              2419 	ld	a,#0xA0
   041D 12                 2420 	ld	(de),a
                           2421 ;	main.c 97
                           2422 ; genPlus
                           2423 ; AOP_STK for _main_sloc5_1_0
                           2424 ; genPlusIncr
                           2425 ;	genPlusIncr failed
   041E 11 B8 00           2426 	ld	de,#_enemy + 0
   0421 21 05 00           2427 	ld	hl,#0x0005
   0424 19                 2428 	add	hl,de
   0425 7D                 2429 	ld	a,l
   0426 54                 2430 	ld	d,h
   0427 F8 00              2431 	lda	hl,0(sp)
   0429 22                 2432 	ld	(hl+),a
   042A 72                 2433 	ld	(hl),d
                           2434 ; genPointerGet
                           2435 ; AOP_STK for _main_sloc1_1_0
   042B F8 07              2436 	lda	hl,7(sp)
   042D 5E                 2437 	ld	e,(hl)
   042E 23                 2438 	inc	hl
   042F 56                 2439 	ld	d,(hl)
   0430 1A                 2440 	ld	a,(de)
   0431 4F                 2441 	ld	c,a
                           2442 ; genAssign (pointer)
                           2443 ; AOP_STK for _main_sloc5_1_0
   0432 F8 00              2444 	lda	hl,0(sp)
   0434 5E                 2445 	ld	e,(hl)
   0435 23                 2446 	inc	hl
   0436 56                 2447 	ld	d,(hl)
   0437 79                 2448 	ld	a,c
   0438 12                 2449 	ld	(de),a
                           2450 ; genLabel
   0439                    2451 00107$:
                           2452 ;	main.c 99
                           2453 ; genPlus
                           2454 ; genPlusIncr
   0439 11 BD 00           2455 	ld	de,#_enemy + 0 + 5
                           2456 ; genPointerGet
   043C 1A                 2457 	ld	a,(de)
   043D 4F                 2458 	ld	c,a
                           2459 ; genPointerGet
                           2460 ; AOP_STK for _main_sloc4_1_0
   043E F8 02              2461 	lda	hl,2(sp)
   0440 5E                 2462 	ld	e,(hl)
   0441 23                 2463 	inc	hl
   0442 56                 2464 	ld	d,(hl)
   0443 1A                 2465 	ld	a,(de)
   0444 47                 2466 	ld	b,a
                           2467 ; genIpush
   0445 79                 2468 	ld	a,c
   0446 F5                 2469 	push	af
   0447 33                 2470 	inc	sp
                           2471 ; genIpush
   0448 78                 2472 	ld	a,b
   0449 F5                 2473 	push	af
   044A 33                 2474 	inc	sp
                           2475 ; genIpush
   044B 21 B8 00           2476 	ld	hl,#_enemy + 0
   044E E5                 2477 	push	hl
                           2478 ; genCall
   044F CD 8E 01           2479 	call	_MoveCharacter
   0452 E8 04              2480 	lda	sp,4(sp)
                           2481 ;	main.c 100
                           2482 ; genIpush
   0454 3E 05              2483 	ld	a,#0x05
   0456 F5                 2484 	push	af
   0457 33                 2485 	inc	sp
                           2486 ; genCall
   0458 CD 00 00           2487 	call	_PerfomantDelay
   045B E8 01              2488 	lda	sp,1(sp)
                           2489 ; genGoto
   045D C3 7A 03           2490 	jp	00108$
                           2491 ; genLabel
   0460                    2492 00110$:
                           2493 ;	main.c 102
                           2494 ; genIpush
   0460 21 6D 04           2495 	ld	hl,#__str_0 + 0
   0463 E5                 2496 	push	hl
                           2497 ; genCall
   0464 CD 00 00           2498 	call	_printf
   0467 E8 02              2499 	lda	sp,2(sp)
                           2500 ; genLabel
   0469                    2501 00111$:
                           2502 ; genEndFunction
   0469 E8 0A              2503 	lda	sp,10(sp)
   046B C1                 2504 	pop	bc
   046C C9                 2505 	ret
   046D                    2506 ___main_end:
   046D                    2507 __str_0:
   046D 3D 3D 3D 47 61 6D  2508 	.ascii "===Game Over==="
        65 20 4F 76 65 72
        3D 3D 3D
   047C 00                 2509 	.db 0x00
                           2510 	.area _CODE
ASxxxx Assembler V01.75  (GameBoy Z80-like CPU), page 1.

Symbol Table

    _BCPD_REG                          **** GX
    _BCPS_REG                          **** GX
    _BGP_REG                           **** GX
    _DIV_REG                           **** GX
    _DMA_REG                           **** GX
  1 _Entities                          0000 GR
    _HDMA1_REG                         **** GX
    _HDMA2_REG                         **** GX
    _HDMA3_REG                         **** GX
    _HDMA4_REG                         **** GX
    _HDMA5_REG                         **** GX
    _IE_REG                            **** GX
    _IF_REG                            **** GX
    _KEY1_REG                          **** GX
    _LCDC_REG                          **** GX
    _LYC_REG                           **** GX
    _LY_REG                            **** GX
  0 _MoveCharacter                     018E GR
    _NR10_REG                          **** GX
    _NR11_REG                          **** GX
    _NR12_REG                          **** GX
    _NR13_REG                          **** GX
    _NR14_REG                          **** GX
    _NR21_REG                          **** GX
    _NR22_REG                          **** GX
    _NR23_REG                          **** GX
    _NR24_REG                          **** GX
    _NR30_REG                          **** GX
    _NR31_REG                          **** GX
    _NR32_REG                          **** GX
    _NR33_REG                          **** GX
    _NR34_REG                          **** GX
    _NR41_REG                          **** GX
    _NR42_REG                          **** GX
    _NR43_REG                          **** GX
    _NR44_REG                          **** GX
    _NR50_REG                          **** GX
    _NR51_REG                          **** GX
    _NR52_REG                          **** GX
    _OBP0_REG                          **** GX
    _OBP1_REG                          **** GX
    _OCPD_REG                          **** GX
    _OCPS_REG                          **** GX
    _P1_REG                            **** GX
  0 _PerfomantDelay                    0000 GR
    _RP_REG                            **** GX
    _SB_REG                            **** GX
    _SCX_REG                           **** GX
    _SCY_REG                           **** GX
    _SC_REG                            **** GX
    _STAT_REG                          **** GX
    _SVBK_REG                          **** GX
  0 _SetupEnemy                        02AB GR
  0 _SetupPlayer                       0218 GR
    _TAC_REG                           **** GX
    _TIMA_REG                          **** GX
    _TMA_REG                           **** GX
    _VBK_REG                           **** GX
    _WX_REG                            **** GX
    _WY_REG                            **** GX
  0 ___MoveCharacter_end               0218 R
  0 ___MoveCharacter_start             018E R
  0 ___PerfomantDelay_end              0014 R
  0 ___PerfomantDelay_start            0000 R
  0 ___SetupEnemy_end                  0326 R
  0 ___SetupEnemy_start                02AB R
  0 ___SetupPlayer_end                 02AB R
  0 ___SetupPlayer_start               0218 R
  0 ___checkCollisions_end             018E R
  0 ___checkCollisions_start           0014 R
  0 ___main_end                        046D R
  0 ___main_start                      0326 R
    __cpu                              **** GX
    __io_in                            **** GX
    __io_out                           **** GX
    __io_status                        **** GX
  0 __str_0                            046D R
  0 _checkCollisions                   0014 GR
  1 _enemy                             00B8 GR
    _font_ibm                          **** GX
    _font_ibm_fixed                    **** GX
    _font_italic                       **** GX
    _font_min                          **** GX
    _font_spect                        **** GX
    _joypad                            **** GX
  0 _main                              0326 GR
    _move_sprite                       **** GX
  1 _player                            00B0 GR
    _printf                            **** GX
    _set_sprite_data                   **** GX
    _set_sprite_tile                   **** GX
  1 _spriteSize                        00C0 GR
    _sys_time                          **** GX
    _wait_vbl_done                     **** GX

ASxxxx Assembler V01.75  (GameBoy Z80-like CPU), page 2.

Area Table

   0 _CODE                              size  47D   flags 0
   1 _DATA                              size   C1   flags 0
   2 _OVERLAY                           size    0   flags 0
   3 _ISEG                              size    0   flags 0
   4 _BSEG                              size    0   flags 0
   5 _XSEG                              size    0   flags 0
   6 _GSINIT                            size  425   flags 0
   7 _GSFINAL                           size    0   flags 0
   8 _HOME                              size    0   flags 0
